Symbol ___x_diab_array_del_o {
}
Symbol _ZdaPv {
}
Symbol .TOC. {
}
Symbol _ZdlPv {
}
Symbol ___x_diab_array_new_o {
}
Symbol _ZTISt9exception {
}
Symbol _ZTISt9bad_alloc {
}
Symbol _ZTSSt9exception {
}
Symbol _ZTSSt9bad_alloc {
}
Symbol _Znam {
}
Symbol _Znwm {
}
Symbol __cxa_call_unexpected {
}
Symbol __diab_Unwind_Resume {
}
Symbol __diab_personality_v0 {
}
Symbol _ZTVN10__cxxabiv117__class_type_infoE {
}
Symbol _ZTVN10__cxxabiv120__si_class_type_infoE {
}
Symbol ___x_diab_array_nodel_o {
}
Symbol _ZdaPvRKSt9nothrow_t {
}
Symbol _ZdlPvRKSt9nothrow_t {
}
Symbol ___x_diab_array_nonew_o {
}
Symbol _ZnamRKSt9nothrow_t {
}
Symbol _ZnwmRKSt9nothrow_t {
}
Symbol ___x_diab_array_pdel_o {
}
Symbol _ZdaPvS_ {
}
Symbol ___x_diab_cppalloc_o {
}
Symbol __cpp_alloc {
}
Symbol malloc {
}
Symbol __cpp_realloc {
}
Symbol realloc {
}
Symbol __cpp_free {
}
Symbol free {
}
Symbol ___x_diab_cxa_eh_o {
}
Symbol _ZTVSt9exception {
}
Symbol _ZTVSt13bad_exception {
}
Symbol _ZTIv {
}
Symbol _ZTSv {
}
Symbol _ZTISt13bad_exception {
}
Symbol _ZTSSt13bad_exception {
}
Symbol __call_terminate {
}
Symbol _ZSt9terminatev {
}
Symbol abort {
}
Symbol __err_printf {
}
Symbol _savegpr0_28 {
}
Symbol __eh_debug {
}
Symbol __diab_Unwind_ExtendAddress {
}
Symbol __diab_Unwind_SetArg1 {
}
Symbol __diab_Unwind_SetArg2 {
}
Symbol __diab_Unwind_SetIP {
}
Symbol _restgpr0_28 {
}
Symbol __cxa_bad_typeid {
}
Symbol _ZTIN10__cxxabiv119__pointer_type_infoE {
}
Symbol _ZNKSt9type_infoeqERKS_ {
}
Symbol _ZTIN10__cxxabiv129__pointer_to_member_type_infoE {
}
Symbol _ZNKSt9type_info4nameEv {
}
Symbol _savegpr0_27 {
}
Symbol _restgpr0_27 {
}
Symbol _savegpr0_24 {
}
Symbol _ZTIN10__cxxabiv120__si_class_type_infoE {
}
Symbol _ZTIN10__cxxabiv121__vmi_class_type_infoE {
}
Symbol __derived_to_base_conversion {
}
Symbol _restgpr0_24 {
}
Symbol _Z40__diab_personality_exception_spec_allowsPN10__cxxabiv115__cxa_exceptionEPKSt9type_info {
}
Symbol _ZN20__et_exception_tableC1EPKcS1_ {
}
Symbol _ZN27__et_action_record_iteratorC1ERK20__et_exception_tablePKc {
}
Symbol _ZN27__et_action_record_iterator5matchEPvPKSt9type_infoPS0_PFbS0_S3_S3_S4_E {
}
Symbol __real_diab_personality_v0 {
}
Symbol _savegpr0_23 {
}
Symbol __diab_Unwind_GetIP {
}
Symbol __diab_Unwind_GetLanguageSpecificData {
}
Symbol __diab_Unwind_GetRegionStart {
}
Symbol _ZN23__et_call_site_iteratorC1ERK20__et_exception_table {
}
Symbol _ZN23__et_call_site_iterator7find_pcEPKc {
}
Symbol _ZN23__et_call_site_iterator12has_cleanupsEv {
}
Symbol _ZN27__et_action_record_iteratorC1ERK23__et_call_site_iterator {
}
Symbol _ZN27__et_action_record_iterator4nextEv {
}
Symbol _restgpr0_23 {
}
Symbol _savegpr0_26 {
}
Symbol _restgpr0_26 {
}
Symbol __eh_alloc_mem {
}
Symbol __eh_free_mem {
}
Symbol __cxa_get_globals {
}
Symbol __tls_lookup {
}
Symbol __cxa_get_globals_fast {
}
Symbol __cxa_allocate_exception {
}
Symbol __cxa_free_exception {
}
Symbol __cxa_begin_catch {
}
Symbol __cxa_end_catch {
}
Symbol __diab_Unwind_RaiseException {
}
Symbol __cxa_throw {
}
Symbol __unexpected_routine {
}
Symbol __terminate_routine {
}
Symbol __cxa_current_exception_type {
}
Symbol __cxa_rethrow {
}
Symbol _ZNSt13bad_exceptionD1Ev {
}
Symbol __cxa_get_exception_ptr {
}
Symbol __diab_cxa_get_switch_value {
}
Symbol _ZNSt9exceptionD1Ev {
}
Symbol _ZNSt9exceptionD0Ev {
}
Symbol _ZNKSt9exception4whatEv {
}
Symbol _ZNSt13bad_exceptionD0Ev {
}
Symbol _ZSt18uncaught_exceptionv {
}
Symbol _ZTVN10__cxxabiv123__fundamental_type_infoE {
}
Symbol ___x_diab_cxa_eh_diag_o {
}
Symbol _ZTV20__cxa_eh_diagnostics {
}
Symbol _ZTI22__I_cxa_eh_diagnostics {
}
Symbol _ZTI20__cxa_eh_diagnostics {
}
Symbol _ZTS22__I_cxa_eh_diagnostics {
}
Symbol _ZTS20__cxa_eh_diagnostics {
}
Symbol __diab_cxa_debug_landing_pad {
}
Symbol printf {
}
Symbol __diab_cxa_debug {
}
Symbol _ZN20__cxa_eh_diagnosticsC1Ei {
}
Symbol __eh_enable_diagnostics {
}
Symbol _ZN20__cxa_eh_diagnostics21__cxa_install_contextEP17_Unwind_ExceptioniPKc {
}
Symbol _ZN20__cxa_eh_diagnostics18uncaught_exceptionEi {
}
Symbol _ZN20__cxa_eh_diagnostics24__cxa_allocate_exceptionEPN10__cxxabiv120__diab_cxa_exceptionE {
}
Symbol _ZN20__cxa_eh_diagnostics20__cxa_free_exceptionEPv {
}
Symbol _ZN20__cxa_eh_diagnostics22__cxa_delete_exceptionEPv {
}
Symbol _ZN20__cxa_eh_diagnostics27__cxa_delete_exception_dtorEPv {
}
Symbol _ZN20__cxa_eh_diagnostics20__cxa_call_terminateEPv {
}
Symbol _ZN20__cxa_eh_diagnostics21__cxa_call_unexpectedEPv {
}
Symbol _ZN20__cxa_eh_diagnostics23__cxa_get_exception_ptrEPv {
}
Symbol _ZN20__cxa_eh_diagnostics17__cxa_begin_catchEPv {
}
Symbol _ZN20__cxa_eh_diagnostics15__cxa_end_catchEv {
}
Symbol _ZN20__cxa_eh_diagnostics18__cxa_common_throwEPv {
}
Symbol _ZN20__cxa_eh_diagnostics25__cxa_common_throw_beforeEP17_Unwind_Exception {
}
Symbol _ZN20__cxa_eh_diagnostics24__cxa_common_throw_afterEP17_Unwind_Exception {
}
Symbol _ZN20__cxa_eh_diagnostics11__cxa_throwEPvPN10__cxxabiv115__cxa_exceptionE {
}
Symbol _ZN20__cxa_eh_diagnostics13__cxa_rethrowEv {
}
Symbol _ZN20__cxa_eh_diagnostics28__diab_personality_v0_beforeEiyP17_Unwind_ExceptionP15_Unwind_Context {
}
Symbol _ZN20__cxa_eh_diagnostics27__diab_personality_v0_startEPKcS1_RK20__et_exception_table {
}
Symbol _ZN20__cxa_eh_diagnostics35__diab_personality_v0_action_recordERK27__et_action_record_iterator {
}
Symbol _ZNK27__et_action_record_iterator17print_type_filterEv {
}
Symbol _ZN20__cxa_eh_diagnostics35__diab_personality_v0_handler_foundEv {
}
Symbol _ZN20__cxa_eh_diagnostics27__diab_personality_v0_afterEP17_Unwind_Exception19_Unwind_Reason_Code {
}
Symbol _ZN20__cxa_eh_diagnostics40__diab_personality_exception_spec_allowsEPKSt9type_infoRK27__et_action_record_iteratorb {
}
Symbol _ZN20__cxa_eh_diagnosticsC2Ei {
}
Symbol ___x_diab_cxa_except_tab_o {
}
Symbol _Z14__get_uleb128fPPKc {
}
Symbol _Z13__get_leb128fPPKc {
}
Symbol _ZN20__et_exception_tableC2EPKcS1_ {
}
Symbol _ZN23__et_call_site_iterator4nextEv {
}
Symbol _ZN23__et_call_site_iteratorC2ERK20__et_exception_table {
}
Symbol _ZN28__et_exception_spec_iterator4nextEv {
}
Symbol _ZN28__et_exception_spec_iteratorC1ERK27__et_action_record_iteratorPKPKSt9type_info {
}
Symbol _ZN27__et_action_record_iteratorC2ERK23__et_call_site_iterator {
}
Symbol _ZN27__et_action_record_iteratorC2ERK20__et_exception_tablePKc {
}
Symbol _ZN28__et_exception_spec_iteratorC2ERK27__et_action_record_iteratorPKPKSt9type_info {
}
Symbol ___x_diab_delete_o {
}
Symbol ___x_diab_delnothrow_o {
}
Symbol ___x_diab_error_o {
}
Symbol __abort_execution {
}
Symbol ___x_diab_guard_o {
}
Symbol __cxa_guard_acquire {
}
Symbol __diab_cxa_guard_recursive {
}
Symbol __cxa_guard_release {
}
Symbol __cxa_guard_abort {
}
Symbol ___x_diab_diab_cxa_guard_recursive_o {
}
Symbol ___x_diab_new_o {
}
Symbol _new_handler {
}
Symbol _Z21__default_new_handlerv {
}
Symbol ___x_diab_newhandler_o {
}
Symbol _ZTVSt9bad_alloc {
}
Symbol _ZTVSt20bad_array_new_length {
}
Symbol _ZZNSt20bad_array_new_lengthC1EvEs {
}
Symbol _ZTISt20bad_array_new_length {
}
Symbol _ZTSSt20bad_array_new_length {
}
Symbol _ZNSt9bad_allocD1Ev {
}
Symbol __throw_bad_array_new_length {
}
Symbol _ZNSt20bad_array_new_lengthD1Ev {
}
Symbol _ZNSt9bad_allocD0Ev {
}
Symbol _ZNSt20bad_array_new_lengthD0Ev {
}
Symbol ___x_diab_newnothrow_o {
}
Symbol ___x_diab_nothrow_o {
}
Symbol _ZSt7nothrow {
}
Symbol ___x_diab_placedel_o {
}
Symbol _ZdlPvS_ {
}
Symbol ___x_diab_pure_virt_o {
}
Symbol __cxa_pure_virtual {
}
Symbol ___x_diab_del_virt_o {
}
Symbol __cxa_deleted_virtual {
}
Symbol ___x_diab_rtti_o {
}
Symbol _ZTVSt8bad_cast {
}
Symbol _ZZNKSt8bad_cast4whatEvEs {
}
Symbol _ZTVSt10bad_typeid {
}
Symbol _ZZNKSt10bad_typeid4whatEvEs {
}
Symbol _ZTISt8bad_cast {
}
Symbol _ZTISt10bad_typeid {
}
Symbol _ZTSSt8bad_cast {
}
Symbol _ZTSSt10bad_typeid {
}
Symbol _ZNSt10bad_typeidD1Ev {
}
Symbol _savegpr0_16 {
}
Symbol _restgpr0_16 {
}
Symbol __dynamic_cast {
}
Symbol __cxa_bad_cast {
}
Symbol _ZNSt8bad_castD1Ev {
}
Symbol _ZNKSt8bad_cast4whatEv {
}
Symbol _ZNSt8bad_castD0Ev {
}
Symbol _ZNKSt10bad_typeid4whatEv {
}
Symbol _ZNSt10bad_typeidD0Ev {
}
Symbol ___x_diab_set_new_o {
}
Symbol _ZSt15set_new_handlerPFvvE {
}
Symbol ___x_diab_setterm_o {
}
Symbol __default_terminate_routine {
}
Symbol _ZSt13set_terminatePFvvE {
}
Symbol ___x_diab_setunexp_o {
}
Symbol __default_unexpected_routine {
}
Symbol _ZSt14set_unexpectedPFvvE {
}
Symbol ___x_diab_terminate_o {
}
Symbol ___x_diab_typeinfo_o {
}
Symbol _ZTVSt9type_info {
}
Symbol _ZTVN10__cxxabiv117__array_type_infoE {
}
Symbol _ZTVN10__cxxabiv120__function_type_infoE {
}
Symbol _ZTVN10__cxxabiv116__enum_type_infoE {
}
Symbol _ZTVN10__cxxabiv121__vmi_class_type_infoE {
}
Symbol _ZTVN10__cxxabiv117__pbase_type_infoE {
}
Symbol _ZTVN10__cxxabiv119__pointer_type_infoE {
}
Symbol _ZTVN10__cxxabiv129__pointer_to_member_type_infoE {
}
Symbol _ZTISt9type_info {
}
Symbol _ZTIN10__cxxabiv123__fundamental_type_infoE {
}
Symbol _ZTIN10__cxxabiv117__array_type_infoE {
}
Symbol _ZTIN10__cxxabiv120__function_type_infoE {
}
Symbol _ZTIN10__cxxabiv116__enum_type_infoE {
}
Symbol _ZTIN10__cxxabiv117__class_type_infoE {
}
Symbol _ZTIN10__cxxabiv117__pbase_type_infoE {
}
Symbol _ZTSSt9type_info {
}
Symbol _ZTSN10__cxxabiv123__fundamental_type_infoE {
}
Symbol _ZTSN10__cxxabiv117__array_type_infoE {
}
Symbol _ZTSN10__cxxabiv120__function_type_infoE {
}
Symbol _ZTSN10__cxxabiv116__enum_type_infoE {
}
Symbol _ZTSN10__cxxabiv117__class_type_infoE {
}
Symbol _ZTSN10__cxxabiv120__si_class_type_infoE {
}
Symbol _ZTSN10__cxxabiv121__vmi_class_type_infoE {
}
Symbol _ZTSN10__cxxabiv117__pbase_type_infoE {
}
Symbol _ZTSN10__cxxabiv119__pointer_type_infoE {
}
Symbol _ZTSN10__cxxabiv129__pointer_to_member_type_infoE {
}
Symbol _ZTIPKDn {
}
Symbol _ZTSPKDn {
}
Symbol _ZTIDn {
}
Symbol _ZTSDn {
}
Symbol _ZTIPDn {
}
Symbol _ZTSPDn {
}
Symbol _ZTIPKe {
}
Symbol _ZTSPKe {
}
Symbol _ZTIe {
}
Symbol _ZTSe {
}
Symbol _ZTIPe {
}
Symbol _ZTSPe {
}
Symbol _ZTIPKd {
}
Symbol _ZTSPKd {
}
Symbol _ZTId {
}
Symbol _ZTSd {
}
Symbol _ZTIPd {
}
Symbol _ZTSPd {
}
Symbol _ZTIPKf {
}
Symbol _ZTSPKf {
}
Symbol _ZTIf {
}
Symbol _ZTSf {
}
Symbol _ZTIPf {
}
Symbol _ZTSPf {
}
Symbol _ZTIPKy {
}
Symbol _ZTSPKy {
}
Symbol _ZTIy {
}
Symbol _ZTSy {
}
Symbol _ZTIPy {
}
Symbol _ZTSPy {
}
Symbol _ZTIPKx {
}
Symbol _ZTSPKx {
}
Symbol _ZTIx {
}
Symbol _ZTSx {
}
Symbol _ZTIPx {
}
Symbol _ZTSPx {
}
Symbol _ZTIPKm {
}
Symbol _ZTSPKm {
}
Symbol _ZTIm {
}
Symbol _ZTSm {
}
Symbol _ZTIPm {
}
Symbol _ZTSPm {
}
Symbol _ZTIPKl {
}
Symbol _ZTSPKl {
}
Symbol _ZTIl {
}
Symbol _ZTSl {
}
Symbol _ZTIPl {
}
Symbol _ZTSPl {
}
Symbol _ZTIPKj {
}
Symbol _ZTSPKj {
}
Symbol _ZTIj {
}
Symbol _ZTSj {
}
Symbol _ZTIPj {
}
Symbol _ZTSPj {
}
Symbol _ZTIPKi {
}
Symbol _ZTSPKi {
}
Symbol _ZTIi {
}
Symbol _ZTSi {
}
Symbol _ZTIPi {
}
Symbol _ZTSPi {
}
Symbol _ZTIPKt {
}
Symbol _ZTSPKt {
}
Symbol _ZTIt {
}
Symbol _ZTSt {
}
Symbol _ZTIPt {
}
Symbol _ZTSPt {
}
Symbol _ZTIPKs {
}
Symbol _ZTSPKs {
}
Symbol _ZTIs {
}
Symbol _ZTSs {
}
Symbol _ZTIPs {
}
Symbol _ZTSPs {
}
Symbol _ZTIPKh {
}
Symbol _ZTSPKh {
}
Symbol _ZTIh {
}
Symbol _ZTSh {
}
Symbol _ZTIPh {
}
Symbol _ZTSPh {
}
Symbol _ZTIPKa {
}
Symbol _ZTSPKa {
}
Symbol _ZTIa {
}
Symbol _ZTSa {
}
Symbol _ZTIPa {
}
Symbol _ZTSPa {
}
Symbol _ZTIPKc {
}
Symbol _ZTSPKc {
}
Symbol _ZTIc {
}
Symbol _ZTSc {
}
Symbol _ZTIPc {
}
Symbol _ZTSPc {
}
Symbol _ZTIPKDi {
}
Symbol _ZTSPKDi {
}
Symbol _ZTIDi {
}
Symbol _ZTSDi {
}
Symbol _ZTIPDi {
}
Symbol _ZTSPDi {
}
Symbol _ZTIPKDs {
}
Symbol _ZTSPKDs {
}
Symbol _ZTIDs {
}
Symbol _ZTSDs {
}
Symbol _ZTIPDs {
}
Symbol _ZTSPDs {
}
Symbol _ZTIPKw {
}
Symbol _ZTSPKw {
}
Symbol _ZTIw {
}
Symbol _ZTSw {
}
Symbol _ZTIPw {
}
Symbol _ZTSPw {
}
Symbol _ZTIPKb {
}
Symbol _ZTSPKb {
}
Symbol _ZTIb {
}
Symbol _ZTSb {
}
Symbol _ZTIPb {
}
Symbol _ZTSPb {
}
Symbol _ZTIPKv {
}
Symbol _ZTSPKv {
}
Symbol _ZTIPv {
}
Symbol _ZTSPv {
}
Symbol _ZNSt9type_infoD1Ev {
}
Symbol _ZNSt9type_infoD0Ev {
}
Symbol _ZNSt9type_infoD2Ev {
}
Symbol _ZNKSt9type_info6beforeERKS_ {
}
Symbol _ZNKSt9type_infoneERKS_ {
}
Symbol _ZN10__cxxabiv123__fundamental_type_infoD1Ev {
}
Symbol _ZN10__cxxabiv123__fundamental_type_infoD0Ev {
}
Symbol _ZN10__cxxabiv123__fundamental_type_infoD2Ev {
}
Symbol _ZN10__cxxabiv117__array_type_infoD1Ev {
}
Symbol _ZN10__cxxabiv117__array_type_infoD0Ev {
}
Symbol _ZN10__cxxabiv117__array_type_infoD2Ev {
}
Symbol _ZN10__cxxabiv120__function_type_infoD1Ev {
}
Symbol _ZN10__cxxabiv120__function_type_infoD0Ev {
}
Symbol _ZN10__cxxabiv120__function_type_infoD2Ev {
}
Symbol _ZN10__cxxabiv116__enum_type_infoD1Ev {
}
Symbol _ZN10__cxxabiv116__enum_type_infoD0Ev {
}
Symbol _ZN10__cxxabiv116__enum_type_infoD2Ev {
}
Symbol _ZN10__cxxabiv117__class_type_infoD1Ev {
}
Symbol _ZN10__cxxabiv117__class_type_infoD0Ev {
}
Symbol _ZN10__cxxabiv117__class_type_infoD2Ev {
}
Symbol _ZN10__cxxabiv120__si_class_type_infoD1Ev {
}
Symbol _ZN10__cxxabiv120__si_class_type_infoD0Ev {
}
Symbol _ZN10__cxxabiv120__si_class_type_infoD2Ev {
}
Symbol _ZN10__cxxabiv121__vmi_class_type_infoD1Ev {
}
Symbol _ZN10__cxxabiv121__vmi_class_type_infoD0Ev {
}
Symbol _ZN10__cxxabiv121__vmi_class_type_infoD2Ev {
}
Symbol _ZN10__cxxabiv117__pbase_type_infoD1Ev {
}
Symbol _ZN10__cxxabiv117__pbase_type_infoD0Ev {
}
Symbol _ZN10__cxxabiv117__pbase_type_infoD2Ev {
}
Symbol _ZN10__cxxabiv119__pointer_type_infoD1Ev {
}
Symbol _ZN10__cxxabiv119__pointer_type_infoD0Ev {
}
Symbol _ZN10__cxxabiv119__pointer_type_infoD2Ev {
}
Symbol _ZN10__cxxabiv129__pointer_to_member_type_infoD1Ev {
}
Symbol _ZN10__cxxabiv129__pointer_to_member_type_infoD0Ev {
}
Symbol _ZN10__cxxabiv129__pointer_to_member_type_infoD2Ev {
}
Symbol _ZSt16__dummy_typeinfo {
}
Symbol ___x_diab_unexpected_o {
}
Symbol _ZSt10unexpectedv {
}
Symbol ___x_diab_vec_newdel_o {
}
Symbol _savegpr0_19 {
}
Symbol memset {
}
Symbol _restgpr0_19 {
}
Symbol __cxa_vec_new {
}
Symbol __cxa_vec_new2 {
}
Symbol __cxa_vec_new3 {
}
Symbol __cxa_vec_ctor {
}
Symbol __cxa_vec_cctor {
}
Symbol __cxa_vec_dtor {
}
Symbol __cxa_vec_delete {
}
Symbol __cxa_vec_delete2 {
}
Symbol __cxa_vec_delete3 {
}
Symbol __cxa_vec_cleanup {
}
Symbol __cxa_throw_bad_array_new_length {
}
Symbol ___x_diab_err_printf_o {
}
Symbol vsprintf {
}
Symbol strlen {
}
Symbol write {
}
Symbol __dplusplus_intrinsicsInit {
}
Symbol ___x_diab_unwind_fi_o {
}
Symbol __diab_Unwind_GetGR {
}
Symbol __diab_Unwind_SetGR {
}
Symbol __frameinfo_unwind_frame {
}
Symbol __frameinfo_find_frame {
}
Symbol __rta_longjmp {
}
Symbol __common_long_jmp {
}
Symbol ___x_diab_frameinfo_o {
}
Symbol __frameinfo_find {
}
Symbol ___x_diab_framedb_o {
}
Symbol __frameinfo_add {
}
Symbol memmove {
}
Symbol __frameinfo_del {
}
Symbol ___x_diab_frameadd_o {
}
Symbol _STI__15__frameinfo_add {
}
Symbol __frame_info_start {
}
Symbol __frame_info_end {
}
Symbol _STD__15__frameinfo_add {
}
Symbol __frameinfo_used {
}
Symbol __diab_intrinsics_impfp_cplusInit {
}
ObjectFile libdiabcplus.a::_x_diab_array_del.o {
	NAME Object file _x_diab_array_del.o from archive libdiabcplus.a
	EXPORTS ___x_diab_array_del_o _ZdaPv
	IMPORTS .TOC. _ZdlPv
	DECLARES 
	USES 
}
Module _x_diab_array_del.o {
	OBJECT += libdiabcplus.a::_x_diab_array_del.o
}
ObjectFile libdiabcplus.a::_x_diab_array_new.o {
	NAME Object file _x_diab_array_new.o from archive libdiabcplus.a
	EXPORTS ___x_diab_array_new_o _ZTISt9exception _ZTISt9bad_alloc _ZTSSt9exception _ZTSSt9bad_alloc _Znam
	IMPORTS .TOC. _Znwm __cxa_call_unexpected __diab_Unwind_Resume __diab_personality_v0 _ZTVN10__cxxabiv117__class_type_infoE _ZTVN10__cxxabiv120__si_class_type_infoE
	DECLARES 
	USES 
}
Module _x_diab_array_new.o {
	OBJECT += libdiabcplus.a::_x_diab_array_new.o
}
ObjectFile libdiabcplus.a::_x_diab_array_nodel.o {
	NAME Object file _x_diab_array_nodel.o from archive libdiabcplus.a
	EXPORTS ___x_diab_array_nodel_o _ZdaPvRKSt9nothrow_t
	IMPORTS .TOC. _ZdlPvRKSt9nothrow_t
	DECLARES 
	USES 
}
Module _x_diab_array_nodel.o {
	OBJECT += libdiabcplus.a::_x_diab_array_nodel.o
}
ObjectFile libdiabcplus.a::_x_diab_array_nonew.o {
	NAME Object file _x_diab_array_nonew.o from archive libdiabcplus.a
	EXPORTS ___x_diab_array_nonew_o _ZnamRKSt9nothrow_t
	IMPORTS .TOC. _ZnwmRKSt9nothrow_t
	DECLARES 
	USES 
}
Module _x_diab_array_nonew.o {
	OBJECT += libdiabcplus.a::_x_diab_array_nonew.o
}
ObjectFile libdiabcplus.a::_x_diab_array_pdel.o {
	NAME Object file _x_diab_array_pdel.o from archive libdiabcplus.a
	EXPORTS ___x_diab_array_pdel_o _ZdaPvS_
	IMPORTS .TOC.
	DECLARES 
	USES 
}
Module _x_diab_array_pdel.o {
	OBJECT += libdiabcplus.a::_x_diab_array_pdel.o
}
ObjectFile libdiabcplus.a::_x_diab_cppalloc.o {
	NAME Object file _x_diab_cppalloc.o from archive libdiabcplus.a
	EXPORTS ___x_diab_cppalloc_o __cpp_alloc __cpp_realloc __cpp_free
	IMPORTS .TOC. malloc realloc free
	DECLARES 
	USES 
}
Module _x_diab_cppalloc.o {
	OBJECT += libdiabcplus.a::_x_diab_cppalloc.o
}
ObjectFile libdiabcplus.a::_x_diab_cxa_eh.o {
	NAME Object file _x_diab_cxa_eh.o from archive libdiabcplus.a
	EXPORTS ___x_diab_cxa_eh_o _ZTVSt9exception _ZTVSt13bad_exception _ZTIv _ZTSv _ZTISt13bad_exception _ZTISt9exception _ZTSSt9exception _ZTSSt13bad_exception __call_terminate __eh_debug _Z40__diab_personality_exception_spec_allowsPN10__cxxabiv115__cxa_exceptionEPKSt9type_info __real_diab_personality_v0 __diab_personality_v0 __eh_alloc_mem __eh_free_mem __cxa_get_globals __cxa_get_globals_fast __cxa_allocate_exception __cxa_free_exception __cxa_begin_catch __cxa_end_catch __cxa_throw __cxa_current_exception_type __cxa_rethrow __cxa_call_unexpected _ZNSt13bad_exceptionD1Ev __cxa_get_exception_ptr __diab_cxa_get_switch_value _ZNSt9exceptionD1Ev _ZNSt9exceptionD0Ev _ZNKSt9exception4whatEv _ZNSt13bad_exceptionD0Ev _ZSt18uncaught_exceptionv
	IMPORTS .TOC. _ZSt9terminatev abort __err_printf _savegpr0_28 __diab_Unwind_ExtendAddress __diab_Unwind_SetArg1 __diab_Unwind_SetArg2 __diab_Unwind_SetIP _restgpr0_28 __cxa_bad_typeid _ZTIN10__cxxabiv119__pointer_type_infoE _ZNKSt9type_infoeqERKS_ _ZTIN10__cxxabiv129__pointer_to_member_type_infoE _ZNKSt9type_info4nameEv _savegpr0_27 _restgpr0_27 _savegpr0_24 _ZTIN10__cxxabiv120__si_class_type_infoE _ZTIN10__cxxabiv121__vmi_class_type_infoE __derived_to_base_conversion _restgpr0_24 _ZN20__et_exception_tableC1EPKcS1_ _ZN27__et_action_record_iteratorC1ERK20__et_exception_tablePKc _ZN27__et_action_record_iterator5matchEPvPKSt9type_infoPS0_PFbS0_S3_S3_S4_E _savegpr0_23 __diab_Unwind_GetIP __diab_Unwind_GetLanguageSpecificData __diab_Unwind_GetRegionStart _ZN23__et_call_site_iteratorC1ERK20__et_exception_table _ZN23__et_call_site_iterator7find_pcEPKc _ZN23__et_call_site_iterator12has_cleanupsEv _ZN27__et_action_record_iteratorC1ERK23__et_call_site_iterator _ZN27__et_action_record_iterator4nextEv _restgpr0_23 _savegpr0_26 _restgpr0_26 malloc free __tls_lookup __diab_Unwind_Resume __diab_Unwind_RaiseException __unexpected_routine __terminate_routine _ZdlPv _ZTVN10__cxxabiv123__fundamental_type_infoE _ZTVN10__cxxabiv120__si_class_type_infoE _ZTVN10__cxxabiv117__class_type_infoE
	DECLARES 
	USES 
}
Module _x_diab_cxa_eh.o {
	OBJECT += libdiabcplus.a::_x_diab_cxa_eh.o
}
ObjectFile libdiabcplus.a::_x_diab_cxa_eh_diag.o {
	NAME Object file _x_diab_cxa_eh_diag.o from archive libdiabcplus.a
	EXPORTS ___x_diab_cxa_eh_diag_o _ZTV20__cxa_eh_diagnostics _ZTI22__I_cxa_eh_diagnostics _ZTI20__cxa_eh_diagnostics _ZTS22__I_cxa_eh_diagnostics _ZTS20__cxa_eh_diagnostics __diab_cxa_debug_landing_pad __diab_cxa_debug _ZN20__cxa_eh_diagnosticsC1Ei __eh_enable_diagnostics _ZN20__cxa_eh_diagnostics21__cxa_install_contextEP17_Unwind_ExceptioniPKc _ZN20__cxa_eh_diagnostics18uncaught_exceptionEi _ZN20__cxa_eh_diagnostics24__cxa_allocate_exceptionEPN10__cxxabiv120__diab_cxa_exceptionE _ZN20__cxa_eh_diagnostics20__cxa_free_exceptionEPv _ZN20__cxa_eh_diagnostics22__cxa_delete_exceptionEPv _ZN20__cxa_eh_diagnostics27__cxa_delete_exception_dtorEPv _ZN20__cxa_eh_diagnostics20__cxa_call_terminateEPv _ZN20__cxa_eh_diagnostics21__cxa_call_unexpectedEPv _ZN20__cxa_eh_diagnostics23__cxa_get_exception_ptrEPv _ZN20__cxa_eh_diagnostics17__cxa_begin_catchEPv _ZN20__cxa_eh_diagnostics15__cxa_end_catchEv _ZN20__cxa_eh_diagnostics18__cxa_common_throwEPv _ZN20__cxa_eh_diagnostics25__cxa_common_throw_beforeEP17_Unwind_Exception _ZN20__cxa_eh_diagnostics24__cxa_common_throw_afterEP17_Unwind_Exception _ZN20__cxa_eh_diagnostics11__cxa_throwEPvPN10__cxxabiv115__cxa_exceptionE _ZN20__cxa_eh_diagnostics13__cxa_rethrowEv _ZN20__cxa_eh_diagnostics28__diab_personality_v0_beforeEiyP17_Unwind_ExceptionP15_Unwind_Context _ZN20__cxa_eh_diagnostics27__diab_personality_v0_startEPKcS1_RK20__et_exception_table _ZN20__cxa_eh_diagnostics35__diab_personality_v0_action_recordERK27__et_action_record_iterator _ZN20__cxa_eh_diagnostics35__diab_personality_v0_handler_foundEv _ZN20__cxa_eh_diagnostics27__diab_personality_v0_afterEP17_Unwind_Exception19_Unwind_Reason_Code _ZN20__cxa_eh_diagnostics40__diab_personality_exception_spec_allowsEPKSt9type_infoRK27__et_action_record_iteratorb _ZN20__cxa_eh_diagnosticsC2Ei
	IMPORTS .TOC. _savegpr0_26 printf _ZNKSt9type_info4nameEv _restgpr0_26 _Znwm __eh_debug __diab_Unwind_Resume __diab_personality_v0 _savegpr0_28 __diab_Unwind_GetIP _restgpr0_28 _ZNK27__et_action_record_iterator17print_type_filterEv _ZTVN10__cxxabiv117__class_type_infoE _ZTVN10__cxxabiv120__si_class_type_infoE
	DECLARES 
	USES 
}
Module _x_diab_cxa_eh_diag.o {
	OBJECT += libdiabcplus.a::_x_diab_cxa_eh_diag.o
}
ObjectFile libdiabcplus.a::_x_diab_cxa_except_tab.o {
	NAME Object file _x_diab_cxa_except_tab.o from archive libdiabcplus.a
	EXPORTS ___x_diab_cxa_except_tab_o _Z14__get_uleb128fPPKc _Z13__get_leb128fPPKc _ZN20__et_exception_tableC1EPKcS1_ _ZN20__et_exception_tableC2EPKcS1_ _ZN23__et_call_site_iterator4nextEv _ZN23__et_call_site_iterator7find_pcEPKc _ZN27__et_action_record_iterator4nextEv _ZN27__et_action_record_iteratorC1ERK23__et_call_site_iterator _ZN23__et_call_site_iterator12has_cleanupsEv _ZN23__et_call_site_iteratorC1ERK20__et_exception_table _ZN23__et_call_site_iteratorC2ERK20__et_exception_table _ZN28__et_exception_spec_iterator4nextEv _ZN28__et_exception_spec_iteratorC1ERK27__et_action_record_iteratorPKPKSt9type_info _ZN27__et_action_record_iterator5matchEPvPKSt9type_infoPS0_PFbS0_S3_S3_S4_E _ZNK27__et_action_record_iterator17print_type_filterEv _ZN27__et_action_record_iteratorC2ERK23__et_call_site_iterator _ZN27__et_action_record_iteratorC1ERK20__et_exception_tablePKc _ZN27__et_action_record_iteratorC2ERK20__et_exception_tablePKc _ZN28__et_exception_spec_iteratorC2ERK27__et_action_record_iteratorPKPKSt9type_info
	IMPORTS .TOC. _savegpr0_28 _restgpr0_28 printf _ZNKSt9type_info4nameEv
	DECLARES 
	USES 
}
Module _x_diab_cxa_except_tab.o {
	OBJECT += libdiabcplus.a::_x_diab_cxa_except_tab.o
}
ObjectFile libdiabcplus.a::_x_diab_delete.o {
	NAME Object file _x_diab_delete.o from archive libdiabcplus.a
	EXPORTS ___x_diab_delete_o _ZdlPv
	IMPORTS .TOC. __cpp_free __cxa_call_unexpected __diab_personality_v0
	DECLARES 
	USES 
}
Module _x_diab_delete.o {
	OBJECT += libdiabcplus.a::_x_diab_delete.o
}
ObjectFile libdiabcplus.a::_x_diab_delnothrow.o {
	NAME Object file _x_diab_delnothrow.o from archive libdiabcplus.a
	EXPORTS ___x_diab_delnothrow_o _ZdlPvRKSt9nothrow_t
	IMPORTS .TOC. _ZdlPv
	DECLARES 
	USES 
}
Module _x_diab_delnothrow.o {
	OBJECT += libdiabcplus.a::_x_diab_delnothrow.o
}
ObjectFile libdiabcplus.a::_x_diab_error.o {
	NAME Object file _x_diab_error.o from archive libdiabcplus.a
	EXPORTS ___x_diab_error_o __abort_execution
	IMPORTS .TOC. __err_printf abort
	DECLARES 
	USES 
}
Module _x_diab_error.o {
	OBJECT += libdiabcplus.a::_x_diab_error.o
}
ObjectFile libdiabcplus.a::_x_diab_guard.o {
	NAME Object file _x_diab_guard.o from archive libdiabcplus.a
	EXPORTS ___x_diab_guard_o __cxa_guard_acquire __cxa_guard_release __cxa_guard_abort
	IMPORTS .TOC. __diab_cxa_guard_recursive
	DECLARES 
	USES 
}
Module _x_diab_guard.o {
	OBJECT += libdiabcplus.a::_x_diab_guard.o
}
ObjectFile libdiabcplus.a::_x_diab_diab_cxa_guard_recursive.o {
	NAME Object file _x_diab_diab_cxa_guard_recursive.o from archive libdiabcplus.a
	EXPORTS ___x_diab_diab_cxa_guard_recursive_o __diab_cxa_guard_recursive
	IMPORTS .TOC. __abort_execution
	DECLARES 
	USES 
}
Module _x_diab_diab_cxa_guard_recursive.o {
	OBJECT += libdiabcplus.a::_x_diab_diab_cxa_guard_recursive.o
}
ObjectFile libdiabcplus.a::_x_diab_new.o {
	NAME Object file _x_diab_new.o from archive libdiabcplus.a
	EXPORTS ___x_diab_new_o _ZTISt9exception _ZTISt9bad_alloc _ZTSSt9exception _ZTSSt9bad_alloc _Znwm
	IMPORTS .TOC. __cpp_alloc _new_handler _Z21__default_new_handlerv __cxa_call_unexpected __diab_Unwind_Resume __diab_personality_v0 _ZTVN10__cxxabiv117__class_type_infoE _ZTVN10__cxxabiv120__si_class_type_infoE
	DECLARES 
	USES 
}
Module _x_diab_new.o {
	OBJECT += libdiabcplus.a::_x_diab_new.o
}
ObjectFile libdiabcplus.a::_x_diab_newhandler.o {
	NAME Object file _x_diab_newhandler.o from archive libdiabcplus.a
	EXPORTS ___x_diab_newhandler_o _ZTVSt9exception _ZTVSt9bad_alloc _ZTVSt20bad_array_new_length _ZZNSt20bad_array_new_lengthC1EvEs _ZTISt9exception _ZTISt9bad_alloc _ZTISt20bad_array_new_length _ZTSSt9exception _ZTSSt9bad_alloc _ZTSSt20bad_array_new_length _Z21__default_new_handlerv _ZNSt9bad_allocD1Ev __throw_bad_array_new_length _ZNSt20bad_array_new_lengthD1Ev _ZNSt9exceptionD1Ev _ZNSt9exceptionD0Ev _ZNKSt9exception4whatEv _ZNSt9bad_allocD0Ev _ZNSt20bad_array_new_lengthD0Ev _new_handler
	IMPORTS .TOC. __cxa_allocate_exception __cxa_throw _ZdlPv _ZTVN10__cxxabiv117__class_type_infoE _ZTVN10__cxxabiv120__si_class_type_infoE
	DECLARES 
	USES 
}
Module _x_diab_newhandler.o {
	OBJECT += libdiabcplus.a::_x_diab_newhandler.o
}
ObjectFile libdiabcplus.a::_x_diab_newnothrow.o {
	NAME Object file _x_diab_newnothrow.o from archive libdiabcplus.a
	EXPORTS ___x_diab_newnothrow_o _ZTISt9bad_alloc _ZTISt9exception _ZTSSt9exception _ZTSSt9bad_alloc _ZnwmRKSt9nothrow_t
	IMPORTS .TOC. _new_handler _Z21__default_new_handlerv __cxa_get_exception_ptr __cxa_begin_catch __cxa_end_catch __diab_Unwind_Resume __diab_personality_v0 __cpp_alloc __cxa_call_unexpected _ZTVN10__cxxabiv120__si_class_type_infoE _ZTVN10__cxxabiv117__class_type_infoE
	DECLARES 
	USES 
}
Module _x_diab_newnothrow.o {
	OBJECT += libdiabcplus.a::_x_diab_newnothrow.o
}
ObjectFile libdiabcplus.a::_x_diab_nothrow.o {
	NAME Object file _x_diab_nothrow.o from archive libdiabcplus.a
	EXPORTS ___x_diab_nothrow_o _ZSt7nothrow
	IMPORTS 
	DECLARES 
	USES 
}
Module _x_diab_nothrow.o {
	OBJECT += libdiabcplus.a::_x_diab_nothrow.o
}
ObjectFile libdiabcplus.a::_x_diab_placedel.o {
	NAME Object file _x_diab_placedel.o from archive libdiabcplus.a
	EXPORTS ___x_diab_placedel_o _ZdlPvS_
	IMPORTS .TOC.
	DECLARES 
	USES 
}
Module _x_diab_placedel.o {
	OBJECT += libdiabcplus.a::_x_diab_placedel.o
}
ObjectFile libdiabcplus.a::_x_diab_pure_virt.o {
	NAME Object file _x_diab_pure_virt.o from archive libdiabcplus.a
	EXPORTS ___x_diab_pure_virt_o __cxa_pure_virtual
	IMPORTS .TOC. __abort_execution
	DECLARES 
	USES 
}
Module _x_diab_pure_virt.o {
	OBJECT += libdiabcplus.a::_x_diab_pure_virt.o
}
ObjectFile libdiabcplus.a::_x_diab_del_virt.o {
	NAME Object file _x_diab_del_virt.o from archive libdiabcplus.a
	EXPORTS ___x_diab_del_virt_o __cxa_deleted_virtual
	IMPORTS .TOC. __abort_execution
	DECLARES 
	USES 
}
Module _x_diab_del_virt.o {
	OBJECT += libdiabcplus.a::_x_diab_del_virt.o
}
ObjectFile libdiabcplus.a::_x_diab_rtti.o {
	NAME Object file _x_diab_rtti.o from archive libdiabcplus.a
	EXPORTS ___x_diab_rtti_o _ZTVSt9exception _ZTVSt8bad_cast _ZZNKSt8bad_cast4whatEvEs _ZTVSt10bad_typeid _ZZNKSt10bad_typeid4whatEvEs _ZTISt9exception _ZTISt8bad_cast _ZTISt10bad_typeid _ZTSSt9exception _ZTSSt8bad_cast _ZTSSt10bad_typeid __cxa_bad_typeid _ZNSt10bad_typeidD1Ev __derived_to_base_conversion __dynamic_cast __cxa_bad_cast _ZNSt8bad_castD1Ev _ZNSt9exceptionD1Ev _ZNSt9exceptionD0Ev _ZNKSt9exception4whatEv _ZNKSt8bad_cast4whatEv _ZNSt8bad_castD0Ev _ZNKSt10bad_typeid4whatEv _ZNSt10bad_typeidD0Ev
	IMPORTS .TOC. __cxa_allocate_exception __cxa_throw _savegpr0_27 _ZTIN10__cxxabiv120__si_class_type_infoE _ZNKSt9type_infoeqERKS_ _ZTIN10__cxxabiv121__vmi_class_type_infoE _restgpr0_27 _savegpr0_16 _ZNKSt9type_info4nameEv _restgpr0_16 _savegpr0_23 _restgpr0_23 _savegpr0_28 _restgpr0_28 _ZdlPv _ZTVN10__cxxabiv117__class_type_infoE _ZTVN10__cxxabiv120__si_class_type_infoE
	DECLARES 
	USES 
}
Module _x_diab_rtti.o {
	OBJECT += libdiabcplus.a::_x_diab_rtti.o
}
ObjectFile libdiabcplus.a::_x_diab_set_new.o {
	NAME Object file _x_diab_set_new.o from archive libdiabcplus.a
	EXPORTS ___x_diab_set_new_o _ZSt15set_new_handlerPFvvE
	IMPORTS .TOC. _new_handler
	DECLARES 
	USES 
}
Module _x_diab_set_new.o {
	OBJECT += libdiabcplus.a::_x_diab_set_new.o
}
ObjectFile libdiabcplus.a::_x_diab_setterm.o {
	NAME Object file _x_diab_setterm.o from archive libdiabcplus.a
	EXPORTS ___x_diab_setterm_o __terminate_routine _ZSt13set_terminatePFvvE
	IMPORTS .TOC. __default_terminate_routine
	DECLARES 
	USES 
}
Module _x_diab_setterm.o {
	OBJECT += libdiabcplus.a::_x_diab_setterm.o
}
ObjectFile libdiabcplus.a::_x_diab_setunexp.o {
	NAME Object file _x_diab_setunexp.o from archive libdiabcplus.a
	EXPORTS ___x_diab_setunexp_o __unexpected_routine _ZSt14set_unexpectedPFvvE
	IMPORTS .TOC. __default_unexpected_routine
	DECLARES 
	USES 
}
Module _x_diab_setunexp.o {
	OBJECT += libdiabcplus.a::_x_diab_setunexp.o
}
ObjectFile libdiabcplus.a::_x_diab_terminate.o {
	NAME Object file _x_diab_terminate.o from archive libdiabcplus.a
	EXPORTS ___x_diab_terminate_o _ZSt9terminatev __default_terminate_routine
	IMPORTS .TOC. __abort_execution
	DECLARES 
	USES 
}
Module _x_diab_terminate.o {
	OBJECT += libdiabcplus.a::_x_diab_terminate.o
}
ObjectFile libdiabcplus.a::_x_diab_typeinfo.o {
	NAME Object file _x_diab_typeinfo.o from archive libdiabcplus.a
	EXPORTS ___x_diab_typeinfo_o _ZTVSt9type_info _ZTVN10__cxxabiv123__fundamental_type_infoE _ZTVN10__cxxabiv117__array_type_infoE _ZTVN10__cxxabiv120__function_type_infoE _ZTVN10__cxxabiv116__enum_type_infoE _ZTVN10__cxxabiv117__class_type_infoE _ZTVN10__cxxabiv120__si_class_type_infoE _ZTVN10__cxxabiv121__vmi_class_type_infoE _ZTVN10__cxxabiv117__pbase_type_infoE _ZTVN10__cxxabiv119__pointer_type_infoE _ZTVN10__cxxabiv129__pointer_to_member_type_infoE _ZTISt9type_info _ZTIN10__cxxabiv123__fundamental_type_infoE _ZTIN10__cxxabiv117__array_type_infoE _ZTIN10__cxxabiv120__function_type_infoE _ZTIN10__cxxabiv116__enum_type_infoE _ZTIN10__cxxabiv117__class_type_infoE _ZTIN10__cxxabiv120__si_class_type_infoE _ZTIN10__cxxabiv121__vmi_class_type_infoE _ZTIN10__cxxabiv117__pbase_type_infoE _ZTIN10__cxxabiv119__pointer_type_infoE _ZTIN10__cxxabiv129__pointer_to_member_type_infoE _ZTSSt9type_info _ZTSN10__cxxabiv123__fundamental_type_infoE _ZTSN10__cxxabiv117__array_type_infoE _ZTSN10__cxxabiv120__function_type_infoE _ZTSN10__cxxabiv116__enum_type_infoE _ZTSN10__cxxabiv117__class_type_infoE _ZTSN10__cxxabiv120__si_class_type_infoE _ZTSN10__cxxabiv121__vmi_class_type_infoE _ZTSN10__cxxabiv117__pbase_type_infoE _ZTSN10__cxxabiv119__pointer_type_infoE _ZTSN10__cxxabiv129__pointer_to_member_type_infoE _ZTIPKDn _ZTSPKDn _ZTIDn _ZTSDn _ZTIPDn _ZTSPDn _ZTIPKe _ZTSPKe _ZTIe _ZTSe _ZTIPe _ZTSPe _ZTIPKd _ZTSPKd _ZTId _ZTSd _ZTIPd _ZTSPd _ZTIPKf _ZTSPKf _ZTIf _ZTSf _ZTIPf _ZTSPf _ZTIPKy _ZTSPKy _ZTIy _ZTSy _ZTIPy _ZTSPy _ZTIPKx _ZTSPKx _ZTIx _ZTSx _ZTIPx _ZTSPx _ZTIPKm _ZTSPKm _ZTIm _ZTSm _ZTIPm _ZTSPm _ZTIPKl _ZTSPKl _ZTIl _ZTSl _ZTIPl _ZTSPl _ZTIPKj _ZTSPKj _ZTIj _ZTSj _ZTIPj _ZTSPj _ZTIPKi _ZTSPKi _ZTIi _ZTSi _ZTIPi _ZTSPi _ZTIPKt _ZTSPKt _ZTIt _ZTSt _ZTIPt _ZTSPt _ZTIPKs _ZTSPKs _ZTIs _ZTSs _ZTIPs _ZTSPs _ZTIPKh _ZTSPKh _ZTIh _ZTSh _ZTIPh _ZTSPh _ZTIPKa _ZTSPKa _ZTIa _ZTSa _ZTIPa _ZTSPa _ZTIPKc _ZTSPKc _ZTIc _ZTSc _ZTIPc _ZTSPc _ZTIPKDi _ZTSPKDi _ZTIDi _ZTSDi _ZTIPDi _ZTSPDi _ZTIPKDs _ZTSPKDs _ZTIDs _ZTSDs _ZTIPDs _ZTSPDs _ZTIPKw _ZTSPKw _ZTIw _ZTSw _ZTIPw _ZTSPw _ZTIPKb _ZTSPKb _ZTIb _ZTSb _ZTIPb _ZTSPb _ZTIPKv _ZTSPKv _ZTIv _ZTSv _ZTIPv _ZTSPv _ZNSt9type_infoD1Ev _ZNSt9type_infoD0Ev _ZNSt9type_infoD2Ev _ZNKSt9type_info6beforeERKS_ _ZNKSt9type_infoeqERKS_ _ZNKSt9type_infoneERKS_ _ZNKSt9type_info4nameEv _ZN10__cxxabiv123__fundamental_type_infoD1Ev _ZN10__cxxabiv123__fundamental_type_infoD0Ev _ZN10__cxxabiv123__fundamental_type_infoD2Ev _ZN10__cxxabiv117__array_type_infoD1Ev _ZN10__cxxabiv117__array_type_infoD0Ev _ZN10__cxxabiv117__array_type_infoD2Ev _ZN10__cxxabiv120__function_type_infoD1Ev _ZN10__cxxabiv120__function_type_infoD0Ev _ZN10__cxxabiv120__function_type_infoD2Ev _ZN10__cxxabiv116__enum_type_infoD1Ev _ZN10__cxxabiv116__enum_type_infoD0Ev _ZN10__cxxabiv116__enum_type_infoD2Ev _ZN10__cxxabiv117__class_type_infoD1Ev _ZN10__cxxabiv117__class_type_infoD0Ev _ZN10__cxxabiv117__class_type_infoD2Ev _ZN10__cxxabiv120__si_class_type_infoD1Ev _ZN10__cxxabiv120__si_class_type_infoD0Ev _ZN10__cxxabiv120__si_class_type_infoD2Ev _ZN10__cxxabiv121__vmi_class_type_infoD1Ev _ZN10__cxxabiv121__vmi_class_type_infoD0Ev _ZN10__cxxabiv121__vmi_class_type_infoD2Ev _ZN10__cxxabiv117__pbase_type_infoD1Ev _ZN10__cxxabiv117__pbase_type_infoD0Ev _ZN10__cxxabiv117__pbase_type_infoD2Ev _ZN10__cxxabiv119__pointer_type_infoD1Ev _ZN10__cxxabiv119__pointer_type_infoD0Ev _ZN10__cxxabiv119__pointer_type_infoD2Ev _ZN10__cxxabiv129__pointer_to_member_type_infoD1Ev _ZN10__cxxabiv129__pointer_to_member_type_infoD0Ev _ZN10__cxxabiv129__pointer_to_member_type_infoD2Ev _ZSt16__dummy_typeinfo
	IMPORTS .TOC. _ZdlPv
	DECLARES 
	USES 
}
Module _x_diab_typeinfo.o {
	OBJECT += libdiabcplus.a::_x_diab_typeinfo.o
}
ObjectFile libdiabcplus.a::_x_diab_unexpected.o {
	NAME Object file _x_diab_unexpected.o from archive libdiabcplus.a
	EXPORTS ___x_diab_unexpected_o _ZSt10unexpectedv __default_unexpected_routine
	IMPORTS .TOC. _ZSt9terminatev
	DECLARES 
	USES 
}
Module _x_diab_unexpected.o {
	OBJECT += libdiabcplus.a::_x_diab_unexpected.o
}
ObjectFile libdiabcplus.a::_x_diab_vec_newdel.o {
	NAME Object file _x_diab_vec_newdel.o from archive libdiabcplus.a
	EXPORTS ___x_diab_vec_newdel_o __cxa_vec_new __cxa_vec_new2 __cxa_vec_new3 __cxa_vec_ctor __cxa_vec_cctor __cxa_vec_dtor __cxa_vec_delete __cxa_vec_delete2 __cxa_vec_delete3 __cxa_vec_cleanup __cxa_throw_bad_array_new_length
	IMPORTS .TOC. _Znam _ZdaPv _savegpr0_19 __throw_bad_array_new_length memset __cxa_end_catch __diab_Unwind_Resume __cxa_begin_catch __call_terminate __cxa_rethrow _restgpr0_19 __diab_personality_v0
	DECLARES 
	USES 
}
Module _x_diab_vec_newdel.o {
	OBJECT += libdiabcplus.a::_x_diab_vec_newdel.o
}
ObjectFile libdiabcplus.a::_x_diab_err_printf.o {
	NAME Object file _x_diab_err_printf.o from archive libdiabcplus.a
	EXPORTS ___x_diab_err_printf_o __err_printf
	IMPORTS .TOC. vsprintf strlen write
	DECLARES 
	USES 
}
Module _x_diab_err_printf.o {
	OBJECT += libdiabcplus.a::_x_diab_err_printf.o
}
ObjectFile libdiabcplus.a::__dplusplus_intrinsics.o {
	NAME Object file __dplusplus_intrinsics.o from archive libdiabcplus.a
	EXPORTS __dplusplus_intrinsicsInit
	IMPORTS .TOC. ___x_diab_array_del_o ___x_diab_array_new_o ___x_diab_array_nodel_o ___x_diab_array_nonew_o ___x_diab_array_pdel_o ___x_diab_cppalloc_o ___x_diab_cxa_eh_o ___x_diab_cxa_eh_diag_o ___x_diab_cxa_except_tab_o ___x_diab_delete_o ___x_diab_delnothrow_o ___x_diab_error_o ___x_diab_guard_o ___x_diab_diab_cxa_guard_recursive_o ___x_diab_new_o ___x_diab_newhandler_o ___x_diab_newnothrow_o ___x_diab_nothrow_o ___x_diab_placedel_o ___x_diab_pure_virt_o ___x_diab_del_virt_o ___x_diab_rtti_o ___x_diab_set_new_o ___x_diab_setterm_o ___x_diab_setunexp_o ___x_diab_terminate_o ___x_diab_typeinfo_o ___x_diab_unexpected_o ___x_diab_vec_newdel_o ___x_diab_err_printf_o
	DECLARES 
	USES 
}
Module __dplusplus_intrinsics.o {
	OBJECT += libdiabcplus.a::__dplusplus_intrinsics.o
}
ObjectFile libdiabcplus.a::_x_diab_unwind_fi.o {
	NAME Object file _x_diab_unwind_fi.o from archive libdiabcplus.a
	EXPORTS ___x_diab_unwind_fi_o __diab_Unwind_GetIP __diab_Unwind_SetIP __diab_Unwind_GetLanguageSpecificData __diab_Unwind_GetRegionStart __diab_Unwind_GetGR __diab_Unwind_SetGR __diab_Unwind_SetArg1 __diab_Unwind_SetArg2 __diab_Unwind_ExtendAddress __diab_Unwind_RaiseException __diab_Unwind_Resume
	IMPORTS .TOC. _savegpr0_26 __frameinfo_unwind_frame __frameinfo_find_frame __err_printf abort _restgpr0_26 __rta_longjmp __common_long_jmp
	DECLARES 
	USES 
}
Module _x_diab_unwind_fi.o {
	OBJECT += libdiabcplus.a::_x_diab_unwind_fi.o
}
ObjectFile libdiabcplus.a::_x_diab_frameinfo.o {
	NAME Object file _x_diab_frameinfo.o from archive libdiabcplus.a
	EXPORTS ___x_diab_frameinfo_o __frameinfo_unwind_frame __frameinfo_find_frame
	IMPORTS .TOC. __frameinfo_find
	DECLARES 
	USES 
}
Module _x_diab_frameinfo.o {
	OBJECT += libdiabcplus.a::_x_diab_frameinfo.o
}
ObjectFile libdiabcplus.a::_x_diab_framedb.o {
	NAME Object file _x_diab_framedb.o from archive libdiabcplus.a
	EXPORTS ___x_diab_framedb_o __frameinfo_add __frameinfo_del __frameinfo_find
	IMPORTS .TOC. _savegpr0_27 realloc abort malloc memmove _restgpr0_27
	DECLARES 
	USES 
}
Module _x_diab_framedb.o {
	OBJECT += libdiabcplus.a::_x_diab_framedb.o
}
ObjectFile libdiabcplus.a::_x_diab_frameadd.o {
	NAME Object file _x_diab_frameadd.o from archive libdiabcplus.a
	EXPORTS ___x_diab_frameadd_o _STI__15__frameinfo_add __frame_info_start __frame_info_end _STD__15__frameinfo_add __frameinfo_used
	IMPORTS .TOC. __frameinfo_add __frameinfo_del __common_long_jmp __diab_Unwind_RaiseException
	DECLARES 
	USES 
}
Module _x_diab_frameadd.o {
	OBJECT += libdiabcplus.a::_x_diab_frameadd.o
}
ObjectFile libdiabcplus.a::__diab_intrinsics_impfp_cplus.o {
	NAME Object file __diab_intrinsics_impfp_cplus.o from archive libdiabcplus.a
	EXPORTS __diab_intrinsics_impfp_cplusInit
	IMPORTS .TOC. ___x_diab_unwind_fi_o ___x_diab_frameinfo_o ___x_diab_framedb_o ___x_diab_frameadd_o
	DECLARES 
	USES 
}
Module __diab_intrinsics_impfp_cplus.o {
	OBJECT += libdiabcplus.a::__diab_intrinsics_impfp_cplus.o
}
Library libdiabcplus.a {
	MODULES libdiabcplus.a::_x_diab_array_del.o libdiabcplus.a::_x_diab_array_new.o libdiabcplus.a::_x_diab_array_nodel.o libdiabcplus.a::_x_diab_array_nonew.o libdiabcplus.a::_x_diab_array_pdel.o libdiabcplus.a::_x_diab_cppalloc.o libdiabcplus.a::_x_diab_cxa_eh.o libdiabcplus.a::_x_diab_cxa_eh_diag.o libdiabcplus.a::_x_diab_cxa_except_tab.o libdiabcplus.a::_x_diab_delete.o libdiabcplus.a::_x_diab_delnothrow.o libdiabcplus.a::_x_diab_error.o libdiabcplus.a::_x_diab_guard.o libdiabcplus.a::_x_diab_diab_cxa_guard_recursive.o libdiabcplus.a::_x_diab_new.o libdiabcplus.a::_x_diab_newhandler.o libdiabcplus.a::_x_diab_newnothrow.o libdiabcplus.a::_x_diab_nothrow.o libdiabcplus.a::_x_diab_placedel.o libdiabcplus.a::_x_diab_pure_virt.o libdiabcplus.a::_x_diab_del_virt.o libdiabcplus.a::_x_diab_rtti.o libdiabcplus.a::_x_diab_set_new.o libdiabcplus.a::_x_diab_setterm.o libdiabcplus.a::_x_diab_setunexp.o libdiabcplus.a::_x_diab_terminate.o libdiabcplus.a::_x_diab_typeinfo.o libdiabcplus.a::_x_diab_unexpected.o libdiabcplus.a::_x_diab_vec_newdel.o libdiabcplus.a::_x_diab_err_printf.o libdiabcplus.a::__dplusplus_intrinsics.o libdiabcplus.a::_x_diab_unwind_fi.o libdiabcplus.a::_x_diab_frameinfo.o libdiabcplus.a::_x_diab_framedb.o libdiabcplus.a::_x_diab_frameadd.o libdiabcplus.a::__diab_intrinsics_impfp_cplus.o
}
