
libdiabcplus.a:

_x_diab_array_del.o:
00000000 D ___x_diab_array_del_o
00000000 T _ZdaPv
         U _ZdlPv

_x_diab_array_new.o:
00000000 d !cd!_ZTISt9exception
00000000 d !cd!_ZTISt9bad_alloc
00000000 d !cd!_ZTSSt9exception
00000000 d !cd!_ZTSSt9bad_alloc
00000000 D ___x_diab_array_new_o
00000000 V _ZTISt9exception
00000000 V _ZTISt9bad_alloc
00000000 V _ZTSSt9exception
00000000 V _ZTSSt9bad_alloc
00000000 T _Znaj
         U _Znwj
         U __cxa_call_unexpected
         U __diab_Unwind_Resume
         U __diab_personality_v0
         U _ZTVN10__cxxabiv117__class_type_infoE
         U _ZTVN10__cxxabiv120__si_class_type_infoE

_x_diab_array_nodel.o:
00000000 D ___x_diab_array_nodel_o
00000000 T _ZdaPvRKSt9nothrow_t
         U _ZdlPvRKSt9nothrow_t

_x_diab_array_nonew.o:
00000000 D ___x_diab_array_nonew_o
00000000 T _ZnajRKSt9nothrow_t
         U _ZnwjRKSt9nothrow_t

_x_diab_array_pdel.o:
00000000 D ___x_diab_array_pdel_o
00000000 T _ZdaPvS_

_x_diab_cppalloc.o:
00000000 D ___x_diab_cppalloc_o
00000000 T __cpp_alloc
         U malloc
0000002c T __cpp_realloc
         U realloc
0000006c T __cpp_free
         U free

_x_diab_cxa_eh.o:
00000000 t !cd!_ZNSt9exceptionD1Ev
00000000 t !cd!_ZNSt9exceptionD0Ev
00000000 t !cd!_ZNKSt9exception4whatEv
00000000 t !cd!_ZNSt13bad_exceptionD1Ev
00000000 t !cd!_ZNSt13bad_exceptionD0Ev
00000000 d !cd!_ZTVSt9exception
00000000 d !cd!_ZTVSt13bad_exception
00000000 d !cd!_ZTIv
00000000 d !cd!_ZTSv
00000000 d !cd!_ZTISt13bad_exception
00000000 d !cd!_ZTISt9exception
00000000 d !cd!_ZTSSt9exception
00000000 d !cd!_ZTSSt13bad_exception
00000020 t _ZN32_INTERNAL_10_cxa_eh_cpp_e6d56e8014eh_fatal_errorEPKcz
000000b8 t _ZN32_INTERNAL_10_cxa_eh_cpp_e6d56e8021__cxa_install_contextEP17_Unwind_ExceptionP15_Unwind_ContextiPKc
00000188 t _ZN32_INTERNAL_10_cxa_eh_cpp_e6d56e8019get_pbase_type_infoEPKSt9type_info
0000020c t _ZN32_INTERNAL_10_cxa_eh_cpp_e6d56e8021get_pointer_type_infoEPKSt9type_info
00000268 t _ZN32_INTERNAL_10_cxa_eh_cpp_e6d56e8031get_pointer_to_member_type_infoEPKSt9type_info
000002c4 t _ZN32_INTERNAL_10_cxa_eh_cpp_e6d56e8023is_single_level_pointerEPN10__cxxabiv117__pbase_type_infoE
000002f0 t _ZN32_INTERNAL_10_cxa_eh_cpp_e6d56e8021compatible_qualifiersEPN10__cxxabiv117__pbase_type_infoES2_
00000314 t _ZN32_INTERNAL_10_cxa_eh_cpp_e6d56e8037compatible_pointer_to_member_contextsEPN10__cxxabiv117__pbase_type_infoES2_
000003c0 t _ZN32_INTERNAL_10_cxa_eh_cpp_e6d56e8032qualification_conversion_allowedEPN10__cxxabiv117__pbase_type_infoES2_
000004f8 t _ZN32_INTERNAL_10_cxa_eh_cpp_e6d56e8012is_void_typeEPKSt9type_info
00000558 t _ZN32_INTERNAL_10_cxa_eh_cpp_e6d56e8031void_pointer_conversion_allowedEPN10__cxxabiv117__pbase_type_infoES2_
000005bc t _ZN32_INTERNAL_10_cxa_eh_cpp_e6d56e8011check_typesEPKSt9type_infoS2_PvPS3_
000007fc t _ZN32_INTERNAL_10_cxa_eh_cpp_e6d56e8016__cxa_match_typeEPvPKSt9type_infoS3_PS0_
00000000 d __tls___ZN32_INTERNAL_10_cxa_eh_cpp_e6d56e8010__cxxabiv110eh_globalsE
00000e1c t _ZN32_INTERNAL_10_cxa_eh_cpp_e6d56e8010__cxxabiv122__cxa_delete_exceptionEPv
00000fec t _ZN32_INTERNAL_10_cxa_eh_cpp_e6d56e8010__cxxabiv120__cxa_call_terminateEPv
00001074 t _ZN32_INTERNAL_10_cxa_eh_cpp_e6d56e8010__cxxabiv118__cxa_common_throwEPv
000015a4 t _ZN32_INTERNAL_10_cxa_eh_cpp_e6d56e8010__cxxabiv129__cxa_unwind_delete_exceptionE19_Unwind_Reason_CodeP17_Unwind_Exception
00000000 d _ZN32_INTERNAL_10_cxa_eh_cpp_e6d56e8010__cxxabiv110eh_globalsE
00000000 D ___x_diab_cxa_eh_o
00000000 V _ZTVSt9exception
00000000 V _ZTVSt13bad_exception
00000000 V _ZTIv
00000000 V _ZTSv
00000000 V _ZTISt13bad_exception
00000000 V _ZTISt9exception
00000000 V _ZTSSt9exception
00000000 V _ZTSSt13bad_exception
00000000 T __call_terminate
         U _ZSt9terminatev
         U abort
         U __err_printf
         U _savegpr_26
00000004 D __eh_debug
         U __diab_Unwind_ExtendAddress
         U __diab_Unwind_SetArg1
         U __diab_Unwind_SetArg2
         U __diab_Unwind_SetIP
         U _restgpr_26
         U __cxa_bad_typeid
         U _ZTIN10__cxxabiv119__pointer_type_infoE
         U _ZNKSt9type_infoeqERKS_
         U _ZTIN10__cxxabiv129__pointer_to_member_type_infoE
         U _ZNKSt9type_info4nameEv
         U _savegpr_27
         U _restgpr_27
         U _savegpr_24
         U _ZTIN10__cxxabiv120__si_class_type_infoE
         U _ZTIN10__cxxabiv121__vmi_class_type_infoE
         U __derived_to_base_conversion
         U _restgpr_24
0000082c T _Z40__diab_personality_exception_spec_allowsPN10__cxxabiv115__cxa_exceptionEPKSt9type_info
         U _ZN20__et_exception_tableC1EPKcS1_
         U _ZN27__et_action_record_iteratorC1ERK20__et_exception_tablePKc
         U _ZN27__et_action_record_iterator5matchEPvPKSt9type_infoPS0_PFbS0_S3_S3_S4_E
000008e4 T __real_diab_personality_v0
         U _savegpr_22
         U __diab_Unwind_GetIP
         U __diab_Unwind_GetLanguageSpecificData
         U __diab_Unwind_GetRegionStart
         U _ZN23__et_call_site_iteratorC1ERK20__et_exception_table
         U _ZN23__et_call_site_iterator7find_pcEPKc
         U _ZN23__et_call_site_iterator12has_cleanupsEv
         U _ZN27__et_action_record_iteratorC1ERK23__et_call_site_iterator
         U _ZN27__et_action_record_iterator4nextEv
         U _restgpr_22
00000b94 T __diab_personality_v0
         U _savegpr_25
         U _restgpr_25
00000c44 T __eh_alloc_mem
         U malloc
00000c64 T __eh_free_mem
         U free
00000c70 T __cxa_get_globals
         U __tls_lookup
00000c84 T __cxa_get_globals_fast
00000c98 T __cxa_allocate_exception
00000cf8 T __cxa_free_exception
00000d48 T __cxa_begin_catch
00000ef4 T __cxa_end_catch
         U __diab_Unwind_Resume
         U __diab_Unwind_RaiseException
00001184 T __cxa_throw
         U __unexpected_routine
         U __terminate_routine
00001228 T __cxa_current_exception_type
00001268 T __cxa_rethrow
00001304 T __cxa_call_unexpected
00000000 T _ZNSt13bad_exceptionD1Ev
0000146c T __cxa_get_exception_ptr
000014bc T __diab_cxa_get_switch_value
00000000 T _ZNSt9exceptionD1Ev
00000000 T _ZNSt9exceptionD0Ev
         U _ZdlPv
00000000 T _ZNKSt9exception4whatEv
00000000 T _ZNSt13bad_exceptionD0Ev
0000152c T _ZSt18uncaught_exceptionv
         U _ZTVN10__cxxabiv123__fundamental_type_infoE
         U _ZTVN10__cxxabiv120__si_class_type_infoE
         U _ZTVN10__cxxabiv117__class_type_infoE

_x_diab_cxa_eh_diag.o:
00000000 d !cd!_ZTV20__cxa_eh_diagnostics
00000000 d !cd!_ZTI22__I_cxa_eh_diagnostics
00000000 d !cd!_ZTI20__cxa_eh_diagnostics
00000000 d !cd!_ZTS22__I_cxa_eh_diagnostics
00000000 d !cd!_ZTS20__cxa_eh_diagnostics
00000000 D ___x_diab_cxa_eh_diag_o
00000000 V _ZTV20__cxa_eh_diagnostics
00000000 V _ZTI22__I_cxa_eh_diagnostics
00000000 V _ZTI20__cxa_eh_diagnostics
00000000 V _ZTS22__I_cxa_eh_diagnostics
00000000 V _ZTS20__cxa_eh_diagnostics
00000000 T __diab_cxa_debug_landing_pad
         U _savegpr_26
         U printf
         U _ZNKSt9type_info4nameEv
         U _restgpr_26
000000c8 T __diab_cxa_debug
000000e0 T _ZN20__cxa_eh_diagnosticsC1Ei
000000f4 T __eh_enable_diagnostics
         U _Znwj
         U __eh_debug
         U __diab_Unwind_Resume
         U __diab_personality_v0
00000158 T _ZN20__cxa_eh_diagnostics21__cxa_install_contextEP17_Unwind_ExceptioniPKc
000001e0 T _ZN20__cxa_eh_diagnostics18uncaught_exceptionEi
00000228 T _ZN20__cxa_eh_diagnostics24__cxa_allocate_exceptionEPN10__cxxabiv120__diab_cxa_exceptionE
0000024c T _ZN20__cxa_eh_diagnostics20__cxa_free_exceptionEPv
0000026c T _ZN20__cxa_eh_diagnostics22__cxa_delete_exceptionEPv
0000028c T _ZN20__cxa_eh_diagnostics27__cxa_delete_exception_dtorEPv
000002b4 T _ZN20__cxa_eh_diagnostics20__cxa_call_terminateEPv
000002d4 T _ZN20__cxa_eh_diagnostics21__cxa_call_unexpectedEPv
000002f4 T _ZN20__cxa_eh_diagnostics23__cxa_get_exception_ptrEPv
00000314 T _ZN20__cxa_eh_diagnostics17__cxa_begin_catchEPv
00000334 T _ZN20__cxa_eh_diagnostics15__cxa_end_catchEv
00000354 T _ZN20__cxa_eh_diagnostics18__cxa_common_throwEPv
00000374 T _ZN20__cxa_eh_diagnostics25__cxa_common_throw_beforeEP17_Unwind_Exception
00000394 T _ZN20__cxa_eh_diagnostics24__cxa_common_throw_afterEP17_Unwind_Exception
000003b4 T _ZN20__cxa_eh_diagnostics11__cxa_throwEPvPN10__cxxabiv115__cxa_exceptionE
0000043c T _ZN20__cxa_eh_diagnostics13__cxa_rethrowEv
0000045c T _ZN20__cxa_eh_diagnostics28__diab_personality_v0_beforeEiyP17_Unwind_ExceptionP15_Unwind_Context
         U __diab_Unwind_GetIP
000005a4 T _ZN20__cxa_eh_diagnostics27__diab_personality_v0_startEPKcS1_RK20__et_exception_table
0000065c T _ZN20__cxa_eh_diagnostics35__diab_personality_v0_action_recordERK27__et_action_record_iterator
         U _ZNK27__et_action_record_iterator17print_type_filterEv
000006d0 T _ZN20__cxa_eh_diagnostics35__diab_personality_v0_handler_foundEv
000006f0 T _ZN20__cxa_eh_diagnostics27__diab_personality_v0_afterEP17_Unwind_Exception19_Unwind_Reason_Code
000007b4 T _ZN20__cxa_eh_diagnostics40__diab_personality_exception_spec_allowsEPKSt9type_infoRK27__et_action_record_iteratorb
0000088c T _ZN20__cxa_eh_diagnosticsC2Ei
         U _ZTVN10__cxxabiv117__class_type_infoE
         U _ZTVN10__cxxabiv120__si_class_type_infoE

_x_diab_cxa_except_tab.o:
00000000 D ___x_diab_cxa_except_tab_o
00000000 T _Z14__get_uleb128fPPKc
00000038 T _Z13__get_leb128fPPKc
00000084 T _ZN20__et_exception_tableC1EPKcS1_
000000dc T _ZN20__et_exception_tableC2EPKcS1_
000000e8 T _ZN23__et_call_site_iterator4nextEv
0000017c T _ZN23__et_call_site_iterator7find_pcEPKc
000001d4 T _ZN27__et_action_record_iterator4nextEv
0000029c T _ZN27__et_action_record_iteratorC1ERK23__et_call_site_iterator
000002f0 T _ZN23__et_call_site_iterator12has_cleanupsEv
0000034c T _ZN23__et_call_site_iteratorC1ERK20__et_exception_table
00000370 T _ZN23__et_call_site_iteratorC2ERK20__et_exception_table
0000037c T _ZN28__et_exception_spec_iterator4nextEv
000003cc T _ZN28__et_exception_spec_iteratorC1ERK27__et_action_record_iteratorPKPKSt9type_info
000003ec T _ZN27__et_action_record_iterator5matchEPvPKSt9type_infoPS0_PFbS0_S3_S3_S4_E
         U _savegpr_27
         U _restgpr_27
000004c8 T _ZNK27__et_action_record_iterator17print_type_filterEv
         U printf
         U _ZNKSt9type_info4nameEv
000005ac T _ZN27__et_action_record_iteratorC2ERK23__et_call_site_iterator
000005b8 T _ZN27__et_action_record_iteratorC1ERK20__et_exception_tablePKc
000005e0 T _ZN27__et_action_record_iteratorC2ERK20__et_exception_tablePKc
000005ec T _ZN28__et_exception_spec_iteratorC2ERK27__et_action_record_iteratorPKPKSt9type_info

_x_diab_delete.o:
00000000 D ___x_diab_delete_o
00000000 T _ZdlPv
         U __cpp_free
         U __cxa_call_unexpected
         U __diab_personality_v0

_x_diab_delnothrow.o:
00000000 D ___x_diab_delnothrow_o
00000000 T _ZdlPvRKSt9nothrow_t
         U _ZdlPv

_x_diab_error.o:
00000000 t _ZN30_INTERNAL_9_error_cpp_96006b1010error_textE13an_error_code
0000014c t _ZN30_INTERNAL_9_error_cpp_96006b1021display_abort_messageE13an_error_code
00000000 D ___x_diab_error_o
         U __err_printf
         U abort
00000190 T __abort_execution

_x_diab_guard.o:
00000000 D ___x_diab_guard_o
00000000 T __cxa_guard_acquire
         U __diab_cxa_guard_recursive
00000058 T __cxa_guard_release
00000064 T __cxa_guard_abort

_x_diab_diab_cxa_guard_recursive.o:
00000000 D ___x_diab_diab_cxa_guard_recursive_o
00000000 T __diab_cxa_guard_recursive
         U __abort_execution

_x_diab_new.o:
00000000 d !cd!_ZTISt9exception
00000000 d !cd!_ZTISt9bad_alloc
00000000 d !cd!_ZTSSt9exception
00000000 d !cd!_ZTSSt9bad_alloc
00000000 D ___x_diab_new_o
00000000 V _ZTISt9exception
00000000 V _ZTISt9bad_alloc
00000000 V _ZTSSt9exception
00000000 V _ZTSSt9bad_alloc
00000000 T _Znwj
         U __cpp_alloc
         U _new_handler
         U _Z21__default_new_handlerv
         U __cxa_call_unexpected
         U __diab_Unwind_Resume
         U __diab_personality_v0
         U _ZTVN10__cxxabiv117__class_type_infoE
         U _ZTVN10__cxxabiv120__si_class_type_infoE

_x_diab_newhandler.o:
00000000 t !cd!_ZNSt9exceptionD1Ev
00000000 t !cd!_ZNSt9exceptionD0Ev
00000000 t !cd!_ZNKSt9exception4whatEv
00000000 t !cd!_ZNSt9bad_allocD1Ev
00000000 t !cd!_ZNSt9bad_allocD0Ev
00000000 t !cd!_ZNSt20bad_array_new_lengthD1Ev
00000000 t !cd!_ZNSt20bad_array_new_lengthD0Ev
00000000 d !cd!_ZTVSt9exception
00000000 d !cd!_ZTVSt9bad_alloc
00000000 d !cd!_ZTVSt20bad_array_new_length
00000000 t !cd!_ZZNSt20bad_array_new_lengthC1EvEs
00000000 d !cd!_ZTISt9exception
00000000 d !cd!_ZTISt9bad_alloc
00000000 d !cd!_ZTISt20bad_array_new_length
00000000 d !cd!_ZTSSt9exception
00000000 d !cd!_ZTSSt9bad_alloc
00000000 d !cd!_ZTSSt20bad_array_new_length
00000000 D ___x_diab_newhandler_o
00000000 V _ZTVSt9exception
00000000 V _ZTVSt9bad_alloc
00000000 V _ZTVSt20bad_array_new_length
00000000 V _ZZNSt20bad_array_new_lengthC1EvEs
00000000 V _ZTISt9exception
00000000 V _ZTISt9bad_alloc
00000000 V _ZTISt20bad_array_new_length
00000000 V _ZTSSt9exception
00000000 V _ZTSSt9bad_alloc
00000000 V _ZTSSt20bad_array_new_length
00000000 T _Z21__default_new_handlerv
         U __cxa_allocate_exception
00000000 T _ZNSt9bad_allocD1Ev
         U __cxa_throw
00000054 T __throw_bad_array_new_length
00000000 T _ZNSt20bad_array_new_lengthD1Ev
00000000 T _ZNSt9exceptionD1Ev
00000000 T _ZNSt9exceptionD0Ev
         U _ZdlPv
00000000 T _ZNKSt9exception4whatEv
00000000 T _ZNSt9bad_allocD0Ev
00000000 T _ZNSt20bad_array_new_lengthD0Ev
00000004 D _new_handler
         U _ZTVN10__cxxabiv117__class_type_infoE
         U _ZTVN10__cxxabiv120__si_class_type_infoE

_x_diab_newnothrow.o:
00000000 d !cd!_ZTISt9bad_alloc
00000000 d !cd!_ZTISt9exception
00000000 d !cd!_ZTSSt9exception
00000000 d !cd!_ZTSSt9bad_alloc
00000000 t _ZN36_INTERNAL_14_newnothrow_cpp_c388d38d16call_new_handlerEv
00000000 D ___x_diab_newnothrow_o
00000000 V _ZTISt9bad_alloc
00000000 V _ZTISt9exception
00000000 V _ZTSSt9exception
00000000 V _ZTSSt9bad_alloc
         U _new_handler
         U _Z21__default_new_handlerv
         U __cxa_get_exception_ptr
         U __cxa_begin_catch
         U __cxa_end_catch
         U __diab_Unwind_Resume
         U __diab_personality_v0
00000084 T _ZnwjRKSt9nothrow_t
         U __cpp_alloc
         U __cxa_call_unexpected
         U _ZTVN10__cxxabiv120__si_class_type_infoE
         U _ZTVN10__cxxabiv117__class_type_infoE

_x_diab_nothrow.o:
00000000 D ___x_diab_nothrow_o
00000000 D _ZSt7nothrow

_x_diab_placedel.o:
00000000 D ___x_diab_placedel_o
00000000 T _ZdlPvS_

_x_diab_pure_virt.o:
00000000 D ___x_diab_pure_virt_o
00000000 T __cxa_pure_virtual
         U __abort_execution

_x_diab_del_virt.o:
00000000 D ___x_diab_del_virt_o
00000000 T __cxa_deleted_virtual
         U __abort_execution

_x_diab_rtti.o:
00000000 t !cd!_ZNSt9exceptionD1Ev
00000000 t !cd!_ZNSt9exceptionD0Ev
00000000 t !cd!_ZNKSt9exception4whatEv
00000000 t !cd!_ZNKSt8bad_cast4whatEv
00000000 t !cd!_ZNSt8bad_castD1Ev
00000000 t !cd!_ZNSt8bad_castD0Ev
00000000 t !cd!_ZNKSt10bad_typeid4whatEv
00000000 t !cd!_ZNSt10bad_typeidD1Ev
00000000 t !cd!_ZNSt10bad_typeidD0Ev
00000000 d !cd!_ZTVSt9exception
00000000 d !cd!_ZTVSt8bad_cast
00000000 t !cd!_ZZNKSt8bad_cast4whatEvEs
00000000 d !cd!_ZTVSt10bad_typeid
00000000 t !cd!_ZZNKSt10bad_typeid4whatEvEs
00000000 d !cd!_ZTISt9exception
00000000 d !cd!_ZTISt8bad_cast
00000000 d !cd!_ZTISt10bad_typeid
00000000 d !cd!_ZTSSt9exception
00000000 d !cd!_ZTSSt8bad_cast
00000000 d !cd!_ZTSSt10bad_typeid
00000000 t _ZN29_INTERNAL_8_rtti_cpp_066a44b032clear_base_class_traversal_blockEP28a_base_class_traversal_block
00000030 t _ZN29_INTERNAL_8_rtti_cpp_066a44b010is_virtualEPN10__cxxabiv122__base_class_type_infoE
0000004c t _ZN29_INTERNAL_8_rtti_cpp_066a44b024get_virtual_base_pointerEPvPN10__cxxabiv122__base_class_type_infoE
000000b8 t _ZN29_INTERNAL_8_rtti_cpp_066a44b021traverse_base_classesEPvPKSt9type_infoP28a_base_class_traversal_blockPN10__cxxabiv122__base_class_type_infoE
00000218 t _ZN29_INTERNAL_8_rtti_cpp_066a44b028derived_to_base_conversion_rEPvPS0_PKSt9type_infoS4_jPiiPS4_P19a_result_virtualityS5_
000006c4 t _ZN29_INTERNAL_8_rtti_cpp_066a44b023find_base_class_at_addrEPvS0_PKSt9type_infoS3_Pi
00000880 t _ZN29_INTERNAL_8_rtti_cpp_066a44b012tbc_downcastEPvPKSt9type_infoP28a_base_class_traversal_blockPN10__cxxabiv122__base_class_type_infoE
00000964 t _ZN29_INTERNAL_8_rtti_cpp_066a44b017tbc_post_downcastEPvPKSt9type_infoP28a_base_class_traversal_blockPN10__cxxabiv122__base_class_type_infoE
000009d0 t _ZN29_INTERNAL_8_rtti_cpp_066a44b012try_downcastEPvPKSt9type_infoS0_S3_S3_
00000000 D ___x_diab_rtti_o
00000000 V _ZTVSt9exception
00000000 V _ZTVSt8bad_cast
00000000 V _ZZNKSt8bad_cast4whatEvEs
00000000 V _ZTVSt10bad_typeid
00000000 V _ZZNKSt10bad_typeid4whatEvEs
00000000 V _ZTISt9exception
00000000 V _ZTISt8bad_cast
00000000 V _ZTISt10bad_typeid
00000000 V _ZTSSt9exception
00000000 V _ZTSSt8bad_cast
00000000 V _ZTSSt10bad_typeid
00000064 T __cxa_bad_typeid
         U __cxa_allocate_exception
00000000 T _ZNSt10bad_typeidD1Ev
         U __cxa_throw
         U _savegpr_27
         U _ZTIN10__cxxabiv120__si_class_type_infoE
         U _ZNKSt9type_infoeqERKS_
         U _ZTIN10__cxxabiv121__vmi_class_type_infoE
         U _restgpr_27
         U _savegpr_16
         U _ZNKSt9type_info4nameEv
         U _restgpr_16
000005d4 T __derived_to_base_conversion
         U _savegpr_23
         U _restgpr_23
00000a30 T __dynamic_cast
00000b48 T __cxa_bad_cast
00000000 T _ZNSt8bad_castD1Ev
00000000 T _ZNSt9exceptionD1Ev
00000000 T _ZNSt9exceptionD0Ev
         U _ZdlPv
00000000 T _ZNKSt9exception4whatEv
00000000 T _ZNKSt8bad_cast4whatEv
00000000 T _ZNSt8bad_castD0Ev
00000000 T _ZNKSt10bad_typeid4whatEv
00000000 T _ZNSt10bad_typeidD0Ev
         U _ZTVN10__cxxabiv117__class_type_infoE
         U _ZTVN10__cxxabiv120__si_class_type_infoE

_x_diab_set_new.o:
00000000 D ___x_diab_set_new_o
00000000 T _ZSt15set_new_handlerPFvvE
         U _new_handler

_x_diab_setterm.o:
00000000 D ___x_diab_setterm_o
00000000 T __terminate_routine
         U __default_terminate_routine
0000000c T _ZSt13set_terminatePFvvE

_x_diab_setunexp.o:
00000000 D ___x_diab_setunexp_o
00000000 T __unexpected_routine
         U __default_unexpected_routine
0000000c T _ZSt14set_unexpectedPFvvE

_x_diab_terminate.o:
00000000 t _ZN35_INTERNAL_13_terminate_cpp_6bf4626219__default_terminateEv
00000000 D ___x_diab_terminate_o
         U __abort_execution
00000010 T _ZSt9terminatev
00000004 D __default_terminate_routine

_x_diab_typeinfo.o:
00000000 d !cd!_ZTVSt9type_info
00000000 d !cd!_ZTVN10__cxxabiv123__fundamental_type_infoE
00000000 d !cd!_ZTVN10__cxxabiv117__array_type_infoE
00000000 d !cd!_ZTVN10__cxxabiv120__function_type_infoE
00000000 d !cd!_ZTVN10__cxxabiv116__enum_type_infoE
00000000 d !cd!_ZTVN10__cxxabiv117__class_type_infoE
00000000 d !cd!_ZTVN10__cxxabiv120__si_class_type_infoE
00000000 d !cd!_ZTVN10__cxxabiv121__vmi_class_type_infoE
00000000 d !cd!_ZTVN10__cxxabiv117__pbase_type_infoE
00000000 d !cd!_ZTVN10__cxxabiv119__pointer_type_infoE
00000000 d !cd!_ZTVN10__cxxabiv129__pointer_to_member_type_infoE
00000000 d !cd!_ZTISt9type_info
00000000 d !cd!_ZTIN10__cxxabiv123__fundamental_type_infoE
00000000 d !cd!_ZTIN10__cxxabiv117__array_type_infoE
00000000 d !cd!_ZTIN10__cxxabiv120__function_type_infoE
00000000 d !cd!_ZTIN10__cxxabiv116__enum_type_infoE
00000000 d !cd!_ZTIN10__cxxabiv117__class_type_infoE
00000000 d !cd!_ZTIN10__cxxabiv120__si_class_type_infoE
00000000 d !cd!_ZTIN10__cxxabiv121__vmi_class_type_infoE
00000000 d !cd!_ZTIN10__cxxabiv117__pbase_type_infoE
00000000 d !cd!_ZTIN10__cxxabiv119__pointer_type_infoE
00000000 d !cd!_ZTIN10__cxxabiv129__pointer_to_member_type_infoE
00000000 d !cd!_ZTSSt9type_info
00000000 d !cd!_ZTSN10__cxxabiv123__fundamental_type_infoE
00000000 d !cd!_ZTSN10__cxxabiv117__array_type_infoE
00000000 d !cd!_ZTSN10__cxxabiv120__function_type_infoE
00000000 d !cd!_ZTSN10__cxxabiv116__enum_type_infoE
00000000 d !cd!_ZTSN10__cxxabiv117__class_type_infoE
00000000 d !cd!_ZTSN10__cxxabiv120__si_class_type_infoE
00000000 d !cd!_ZTSN10__cxxabiv121__vmi_class_type_infoE
00000000 d !cd!_ZTSN10__cxxabiv117__pbase_type_infoE
00000000 d !cd!_ZTSN10__cxxabiv119__pointer_type_infoE
00000000 d !cd!_ZTSN10__cxxabiv129__pointer_to_member_type_infoE
00000000 d !cd!_ZTIPKDn
00000000 d !cd!_ZTSPKDn
00000000 d !cd!_ZTIDn
00000000 d !cd!_ZTSDn
00000000 d !cd!_ZTIPDn
00000000 d !cd!_ZTSPDn
00000000 d !cd!_ZTIPKe
00000000 d !cd!_ZTSPKe
00000000 d !cd!_ZTIe
00000000 d !cd!_ZTSe
00000000 d !cd!_ZTIPe
00000000 d !cd!_ZTSPe
00000000 d !cd!_ZTIPKd
00000000 d !cd!_ZTSPKd
00000000 d !cd!_ZTId
00000000 d !cd!_ZTSd
00000000 d !cd!_ZTIPd
00000000 d !cd!_ZTSPd
00000000 d !cd!_ZTIPKf
00000000 d !cd!_ZTSPKf
00000000 d !cd!_ZTIf
00000000 d !cd!_ZTSf
00000000 d !cd!_ZTIPf
00000000 d !cd!_ZTSPf
00000000 d !cd!_ZTIPKy
00000000 d !cd!_ZTSPKy
00000000 d !cd!_ZTIy
00000000 d !cd!_ZTSy
00000000 d !cd!_ZTIPy
00000000 d !cd!_ZTSPy
00000000 d !cd!_ZTIPKx
00000000 d !cd!_ZTSPKx
00000000 d !cd!_ZTIx
00000000 d !cd!_ZTSx
00000000 d !cd!_ZTIPx
00000000 d !cd!_ZTSPx
00000000 d !cd!_ZTIPKm
00000000 d !cd!_ZTSPKm
00000000 d !cd!_ZTIm
00000000 d !cd!_ZTSm
00000000 d !cd!_ZTIPm
00000000 d !cd!_ZTSPm
00000000 d !cd!_ZTIPKl
00000000 d !cd!_ZTSPKl
00000000 d !cd!_ZTIl
00000000 d !cd!_ZTSl
00000000 d !cd!_ZTIPl
00000000 d !cd!_ZTSPl
00000000 d !cd!_ZTIPKj
00000000 d !cd!_ZTSPKj
00000000 d !cd!_ZTIj
00000000 d !cd!_ZTSj
00000000 d !cd!_ZTIPj
00000000 d !cd!_ZTSPj
00000000 d !cd!_ZTIPKi
00000000 d !cd!_ZTSPKi
00000000 d !cd!_ZTIi
00000000 d !cd!_ZTSi
00000000 d !cd!_ZTIPi
00000000 d !cd!_ZTSPi
00000000 d !cd!_ZTIPKt
00000000 d !cd!_ZTSPKt
00000000 d !cd!_ZTIt
00000000 d !cd!_ZTSt
00000000 d !cd!_ZTIPt
00000000 d !cd!_ZTSPt
00000000 d !cd!_ZTIPKs
00000000 d !cd!_ZTSPKs
00000000 d !cd!_ZTIs
00000000 d !cd!_ZTSs
00000000 d !cd!_ZTIPs
00000000 d !cd!_ZTSPs
00000000 d !cd!_ZTIPKh
00000000 d !cd!_ZTSPKh
00000000 d !cd!_ZTIh
00000000 d !cd!_ZTSh
00000000 d !cd!_ZTIPh
00000000 d !cd!_ZTSPh
00000000 d !cd!_ZTIPKa
00000000 d !cd!_ZTSPKa
00000000 d !cd!_ZTIa
00000000 d !cd!_ZTSa
00000000 d !cd!_ZTIPa
00000000 d !cd!_ZTSPa
00000000 d !cd!_ZTIPKc
00000000 d !cd!_ZTSPKc
00000000 d !cd!_ZTIc
00000000 d !cd!_ZTSc
00000000 d !cd!_ZTIPc
00000000 d !cd!_ZTSPc
00000000 d !cd!_ZTIPKDi
00000000 d !cd!_ZTSPKDi
00000000 d !cd!_ZTIDi
00000000 d !cd!_ZTSDi
00000000 d !cd!_ZTIPDi
00000000 d !cd!_ZTSPDi
00000000 d !cd!_ZTIPKDs
00000000 d !cd!_ZTSPKDs
00000000 d !cd!_ZTIDs
00000000 d !cd!_ZTSDs
00000000 d !cd!_ZTIPDs
00000000 d !cd!_ZTSPDs
00000000 d !cd!_ZTIPKw
00000000 d !cd!_ZTSPKw
00000000 d !cd!_ZTIw
00000000 d !cd!_ZTSw
00000000 d !cd!_ZTIPw
00000000 d !cd!_ZTSPw
00000000 d !cd!_ZTIPKb
00000000 d !cd!_ZTSPKb
00000000 d !cd!_ZTIb
00000000 d !cd!_ZTSb
00000000 d !cd!_ZTIPb
00000000 d !cd!_ZTSPb
00000000 d !cd!_ZTIPKv
00000000 d !cd!_ZTSPKv
00000000 d !cd!_ZTIv
00000000 d !cd!_ZTSv
00000000 d !cd!_ZTIPv
00000000 d !cd!_ZTSPv
00000000 D ___x_diab_typeinfo_o
00000000 V _ZTVSt9type_info
00000000 V _ZTVN10__cxxabiv123__fundamental_type_infoE
00000000 V _ZTVN10__cxxabiv117__array_type_infoE
00000000 V _ZTVN10__cxxabiv120__function_type_infoE
00000000 V _ZTVN10__cxxabiv116__enum_type_infoE
00000000 V _ZTVN10__cxxabiv117__class_type_infoE
00000000 V _ZTVN10__cxxabiv120__si_class_type_infoE
00000000 V _ZTVN10__cxxabiv121__vmi_class_type_infoE
00000000 V _ZTVN10__cxxabiv117__pbase_type_infoE
00000000 V _ZTVN10__cxxabiv119__pointer_type_infoE
00000000 V _ZTVN10__cxxabiv129__pointer_to_member_type_infoE
00000000 V _ZTISt9type_info
00000000 V _ZTIN10__cxxabiv123__fundamental_type_infoE
00000000 V _ZTIN10__cxxabiv117__array_type_infoE
00000000 V _ZTIN10__cxxabiv120__function_type_infoE
00000000 V _ZTIN10__cxxabiv116__enum_type_infoE
00000000 V _ZTIN10__cxxabiv117__class_type_infoE
00000000 V _ZTIN10__cxxabiv120__si_class_type_infoE
00000000 V _ZTIN10__cxxabiv121__vmi_class_type_infoE
00000000 V _ZTIN10__cxxabiv117__pbase_type_infoE
00000000 V _ZTIN10__cxxabiv119__pointer_type_infoE
00000000 V _ZTIN10__cxxabiv129__pointer_to_member_type_infoE
00000000 V _ZTSSt9type_info
00000000 V _ZTSN10__cxxabiv123__fundamental_type_infoE
00000000 V _ZTSN10__cxxabiv117__array_type_infoE
00000000 V _ZTSN10__cxxabiv120__function_type_infoE
00000000 V _ZTSN10__cxxabiv116__enum_type_infoE
00000000 V _ZTSN10__cxxabiv117__class_type_infoE
00000000 V _ZTSN10__cxxabiv120__si_class_type_infoE
00000000 V _ZTSN10__cxxabiv121__vmi_class_type_infoE
00000000 V _ZTSN10__cxxabiv117__pbase_type_infoE
00000000 V _ZTSN10__cxxabiv119__pointer_type_infoE
00000000 V _ZTSN10__cxxabiv129__pointer_to_member_type_infoE
00000000 V _ZTIPKDn
00000000 V _ZTSPKDn
00000000 V _ZTIDn
00000000 V _ZTSDn
00000000 V _ZTIPDn
00000000 V _ZTSPDn
00000000 V _ZTIPKe
00000000 V _ZTSPKe
00000000 V _ZTIe
00000000 V _ZTSe
00000000 V _ZTIPe
00000000 V _ZTSPe
00000000 V _ZTIPKd
00000000 V _ZTSPKd
00000000 V _ZTId
00000000 V _ZTSd
00000000 V _ZTIPd
00000000 V _ZTSPd
00000000 V _ZTIPKf
00000000 V _ZTSPKf
00000000 V _ZTIf
00000000 V _ZTSf
00000000 V _ZTIPf
00000000 V _ZTSPf
00000000 V _ZTIPKy
00000000 V _ZTSPKy
00000000 V _ZTIy
00000000 V _ZTSy
00000000 V _ZTIPy
00000000 V _ZTSPy
00000000 V _ZTIPKx
00000000 V _ZTSPKx
00000000 V _ZTIx
00000000 V _ZTSx
00000000 V _ZTIPx
00000000 V _ZTSPx
00000000 V _ZTIPKm
00000000 V _ZTSPKm
00000000 V _ZTIm
00000000 V _ZTSm
00000000 V _ZTIPm
00000000 V _ZTSPm
00000000 V _ZTIPKl
00000000 V _ZTSPKl
00000000 V _ZTIl
00000000 V _ZTSl
00000000 V _ZTIPl
00000000 V _ZTSPl
00000000 V _ZTIPKj
00000000 V _ZTSPKj
00000000 V _ZTIj
00000000 V _ZTSj
00000000 V _ZTIPj
00000000 V _ZTSPj
00000000 V _ZTIPKi
00000000 V _ZTSPKi
00000000 V _ZTIi
00000000 V _ZTSi
00000000 V _ZTIPi
00000000 V _ZTSPi
00000000 V _ZTIPKt
00000000 V _ZTSPKt
00000000 V _ZTIt
00000000 V _ZTSt
00000000 V _ZTIPt
00000000 V _ZTSPt
00000000 V _ZTIPKs
00000000 V _ZTSPKs
00000000 V _ZTIs
00000000 V _ZTSs
00000000 V _ZTIPs
00000000 V _ZTSPs
00000000 V _ZTIPKh
00000000 V _ZTSPKh
00000000 V _ZTIh
00000000 V _ZTSh
00000000 V _ZTIPh
00000000 V _ZTSPh
00000000 V _ZTIPKa
00000000 V _ZTSPKa
00000000 V _ZTIa
00000000 V _ZTSa
00000000 V _ZTIPa
00000000 V _ZTSPa
00000000 V _ZTIPKc
00000000 V _ZTSPKc
00000000 V _ZTIc
00000000 V _ZTSc
00000000 V _ZTIPc
00000000 V _ZTSPc
00000000 V _ZTIPKDi
00000000 V _ZTSPKDi
00000000 V _ZTIDi
00000000 V _ZTSDi
00000000 V _ZTIPDi
00000000 V _ZTSPDi
00000000 V _ZTIPKDs
00000000 V _ZTSPKDs
00000000 V _ZTIDs
00000000 V _ZTSDs
00000000 V _ZTIPDs
00000000 V _ZTSPDs
00000000 V _ZTIPKw
00000000 V _ZTSPKw
00000000 V _ZTIw
00000000 V _ZTSw
00000000 V _ZTIPw
00000000 V _ZTSPw
00000000 V _ZTIPKb
00000000 V _ZTSPKb
00000000 V _ZTIb
00000000 V _ZTSb
00000000 V _ZTIPb
00000000 V _ZTSPb
00000000 V _ZTIPKv
00000000 V _ZTSPKv
00000000 V _ZTIv
00000000 V _ZTSv
00000000 V _ZTIPv
00000000 V _ZTSPv
00000000 T _ZNSt9type_infoD1Ev
00000010 T _ZNSt9type_infoD0Ev
         U _ZdlPv
00000028 T _ZNSt9type_infoD2Ev
00000038 T _ZNKSt9type_info6beforeERKS_
00000054 T _ZNKSt9type_infoeqERKS_
0000007c T _ZNKSt9type_infoneERKS_
000000a4 T _ZNKSt9type_info4nameEv
000000ac T _ZN10__cxxabiv123__fundamental_type_infoD1Ev
000000bc T _ZN10__cxxabiv123__fundamental_type_infoD0Ev
000000dc T _ZN10__cxxabiv123__fundamental_type_infoD2Ev
000000e8 T _ZN10__cxxabiv117__array_type_infoD1Ev
000000f8 T _ZN10__cxxabiv117__array_type_infoD0Ev
00000118 T _ZN10__cxxabiv117__array_type_infoD2Ev
00000124 T _ZN10__cxxabiv120__function_type_infoD1Ev
00000134 T _ZN10__cxxabiv120__function_type_infoD0Ev
00000154 T _ZN10__cxxabiv120__function_type_infoD2Ev
00000160 T _ZN10__cxxabiv116__enum_type_infoD1Ev
00000170 T _ZN10__cxxabiv116__enum_type_infoD0Ev
00000190 T _ZN10__cxxabiv116__enum_type_infoD2Ev
0000019c T _ZN10__cxxabiv117__class_type_infoD1Ev
000001ac T _ZN10__cxxabiv117__class_type_infoD0Ev
000001cc T _ZN10__cxxabiv117__class_type_infoD2Ev
000001d8 T _ZN10__cxxabiv120__si_class_type_infoD1Ev
000001f0 T _ZN10__cxxabiv120__si_class_type_infoD0Ev
00000210 T _ZN10__cxxabiv120__si_class_type_infoD2Ev
0000021c T _ZN10__cxxabiv121__vmi_class_type_infoD1Ev
00000234 T _ZN10__cxxabiv121__vmi_class_type_infoD0Ev
00000254 T _ZN10__cxxabiv121__vmi_class_type_infoD2Ev
00000260 T _ZN10__cxxabiv117__pbase_type_infoD1Ev
00000270 T _ZN10__cxxabiv117__pbase_type_infoD0Ev
00000290 T _ZN10__cxxabiv117__pbase_type_infoD2Ev
0000029c T _ZN10__cxxabiv119__pointer_type_infoD1Ev
000002b4 T _ZN10__cxxabiv119__pointer_type_infoD0Ev
000002d4 T _ZN10__cxxabiv119__pointer_type_infoD2Ev
000002e0 T _ZN10__cxxabiv129__pointer_to_member_type_infoD1Ev
000002f8 T _ZN10__cxxabiv129__pointer_to_member_type_infoD0Ev
00000318 T _ZN10__cxxabiv129__pointer_to_member_type_infoD2Ev
00000004 D _ZSt16__dummy_typeinfo

_x_diab_unexpected.o:
00000000 D ___x_diab_unexpected_o
00000000 T _ZSt10unexpectedv
00000004 D __default_unexpected_routine
         U _ZSt9terminatev

_x_diab_vec_newdel.o:
00000000 t _ZN36_INTERNAL_14_vec_newdel_cpp_8a08d4a511alloc_arrayEjjPFPvjE
00000054 t _ZN36_INTERNAL_14_vec_newdel_cpp_8a08d4a510free_arrayEPvjjPFvS0_Ei
000000a8 t _ZN36_INTERNAL_14_vec_newdel_cpp_8a08d4a517array_new_generalEPvijjS0_PFvS0_ES2_PFS0_jES2_ii
000003f0 t _ZN36_INTERNAL_14_vec_newdel_cpp_8a08d4a520array_delete_generalEPvijjPFvS0_EiS2_ii
00000000 D ___x_diab_vec_newdel_o
         U _Znaj
         U _ZdaPv
         U _savegpr_19
         U __throw_bad_array_new_length
         U memset
         U __cxa_end_catch
         U __diab_Unwind_Resume
         U __cxa_begin_catch
         U __call_terminate
         U __cxa_rethrow
         U _restgpr_19
         U __diab_personality_v0
00000270 T __cxa_vec_new
000002c0 T __cxa_vec_new2
00000310 T __cxa_vec_new3
00000364 T __cxa_vec_ctor
000003a4 T __cxa_vec_cctor
0000054c T __cxa_vec_dtor
00000584 T __cxa_vec_delete
000005c4 T __cxa_vec_delete2
00000604 T __cxa_vec_delete3
00000648 T __cxa_vec_cleanup
00000688 T __cxa_throw_bad_array_new_length

_x_diab_err_printf.o:
00000000 D ___x_diab_err_printf_o
00000000 T __err_printf
         U vsprintf
         U strlen
         U write

__dplusplus_intrinsics.o:
00000000 d __dplusplus_intrinsics
00000000 T __dplusplus_intrinsicsInit
         U ___x_diab_array_del_o
         U ___x_diab_array_new_o
         U ___x_diab_array_nodel_o
         U ___x_diab_array_nonew_o
         U ___x_diab_array_pdel_o
         U ___x_diab_cppalloc_o
         U ___x_diab_cxa_eh_o
         U ___x_diab_cxa_eh_diag_o
         U ___x_diab_cxa_except_tab_o
         U ___x_diab_delete_o
         U ___x_diab_delnothrow_o
         U ___x_diab_error_o
         U ___x_diab_guard_o
         U ___x_diab_diab_cxa_guard_recursive_o
         U ___x_diab_new_o
         U ___x_diab_newhandler_o
         U ___x_diab_newnothrow_o
         U ___x_diab_nothrow_o
         U ___x_diab_placedel_o
         U ___x_diab_pure_virt_o
         U ___x_diab_del_virt_o
         U ___x_diab_rtti_o
         U ___x_diab_set_new_o
         U ___x_diab_setterm_o
         U ___x_diab_setunexp_o
         U ___x_diab_terminate_o
         U ___x_diab_typeinfo_o
         U ___x_diab_unexpected_o
         U ___x_diab_vec_newdel_o
         U ___x_diab_err_printf_o

_x_diab_unwind_fi.o:
00000054 t _Unwind_Call_Personality_Routine
000000a4 t _Unwind_Frame
000001e8 t _Unwind_RaiseException_Phase1
00000294 t _Unwind_SkipFrames
000002f4 t _Unwind_RaiseException_Phase2
0000037c t _Unwind_SetCPUState
000003ac t _Unwind_CommonRaiseException
00000000 D ___x_diab_unwind_fi_o
00000000 T __diab_Unwind_GetIP
00000008 T __diab_Unwind_SetIP
00000010 T __diab_Unwind_GetLanguageSpecificData
00000018 T __diab_Unwind_GetRegionStart
00000020 T __diab_Unwind_GetGR
00000030 T __diab_Unwind_SetGR
00000040 T __diab_Unwind_SetArg1
00000048 T __diab_Unwind_SetArg2
00000050 T __diab_Unwind_ExtendAddress
         U _savegpr_26
         U __frameinfo_unwind_frame
         U __frameinfo_find_frame
         U __err_printf
         U abort
         U _restgpr_26
         U __rta_longjmp
         U __common_long_jmp
000006c4 T __diab_Unwind_RaiseException
000006ec T __diab_Unwind_Resume

_x_diab_frameinfo.o:
00000000 D ___x_diab_frameinfo_o
00000000 T __frameinfo_unwind_frame
0000027c T __frameinfo_find_frame
         U __frameinfo_find

_x_diab_framedb.o:
00000000 t findentry
00000004 b _FrameInfoSize
00000000 b _FrameInfoRoot
00000008 b _FrameInfoMax
00000000 D ___x_diab_framedb_o
00000038 T __frameinfo_add
         U _savegpr_26
         U realloc
         U abort
         U malloc
         U memmove
         U _restgpr_26
000001b4 T __frameinfo_del
00000244 T __frameinfo_find

_x_diab_frameadd.o:
00000000 d .abbrev_start
0000004b d .global_end
00000004 d .global_start
0000004a d .sibling_target
00000000 D ___x_diab_frameadd_o
00000000 T _STI__15__frameinfo_add
00000000 D __frame_info_start
00000000 D __frame_info_end
         U __frameinfo_add
0000001c T _STD__15__frameinfo_add
         U __frameinfo_del
00000038 T __frameinfo_used
         U __common_long_jmp
         U __diab_Unwind_RaiseException

__diab_intrinsics_impfp_cplus.o:
00000000 d __diab_intrinsics_impfp_cplus
00000000 T __diab_intrinsics_impfp_cplusInit
         U ___x_diab_unwind_fi_o
         U ___x_diab_frameinfo_o
         U ___x_diab_framedb_o
         U ___x_diab_frameadd_o

libdiabcplus.a:

_x_diab_array_del.o:
00000000 D ___x_diab_array_del_o
00000000 T _ZdaPv
         U _ZdlPv

_x_diab_array_new.o:
00000000 d !cd!_ZTISt9exception
00000000 d !cd!_ZTISt9bad_alloc
00000000 d !cd!_ZTSSt9exception
00000000 d !cd!_ZTSSt9bad_alloc
00000000 D ___x_diab_array_new_o
00000000 V _ZTISt9exception
00000000 V _ZTISt9bad_alloc
00000000 V _ZTSSt9exception
00000000 V _ZTSSt9bad_alloc
00000000 T _Znaj
         U _Znwj
         U __cxa_call_unexpected
         U __diab_Unwind_Resume
         U __diab_personality_v0
         U _ZTVN10__cxxabiv117__class_type_infoE
         U _ZTVN10__cxxabiv120__si_class_type_infoE

_x_diab_array_nodel.o:
00000000 D ___x_diab_array_nodel_o
00000000 T _ZdaPvRKSt9nothrow_t
         U _ZdlPvRKSt9nothrow_t

_x_diab_array_nonew.o:
00000000 D ___x_diab_array_nonew_o
00000000 T _ZnajRKSt9nothrow_t
         U _ZnwjRKSt9nothrow_t

_x_diab_array_pdel.o:
00000000 D ___x_diab_array_pdel_o
00000000 T _ZdaPvS_

_x_diab_cppalloc.o:
00000000 D ___x_diab_cppalloc_o
00000000 T __cpp_alloc
         U malloc
0000002c T __cpp_realloc
         U realloc
0000006c T __cpp_free
         U free

_x_diab_cxa_eh.o:
00000000 t !cd!_ZNSt9exceptionD1Ev
00000000 t !cd!_ZNSt9exceptionD0Ev
00000000 t !cd!_ZNKSt9exception4whatEv
00000000 t !cd!_ZNSt13bad_exceptionD1Ev
00000000 t !cd!_ZNSt13bad_exceptionD0Ev
00000000 d !cd!_ZTVSt9exception
00000000 d !cd!_ZTVSt13bad_exception
00000000 d !cd!_ZTIv
00000000 d !cd!_ZTSv
00000000 d !cd!_ZTISt13bad_exception
00000000 d !cd!_ZTISt9exception
00000000 d !cd!_ZTSSt9exception
00000000 d !cd!_ZTSSt13bad_exception
00000020 t _ZN32_INTERNAL_10_cxa_eh_cpp_e6d56e8014eh_fatal_errorEPKcz
000000b8 t _ZN32_INTERNAL_10_cxa_eh_cpp_e6d56e8021__cxa_install_contextEP17_Unwind_ExceptionP15_Unwind_ContextiPKc
00000188 t _ZN32_INTERNAL_10_cxa_eh_cpp_e6d56e8019get_pbase_type_infoEPKSt9type_info
0000020c t _ZN32_INTERNAL_10_cxa_eh_cpp_e6d56e8021get_pointer_type_infoEPKSt9type_info
00000268 t _ZN32_INTERNAL_10_cxa_eh_cpp_e6d56e8031get_pointer_to_member_type_infoEPKSt9type_info
000002c4 t _ZN32_INTERNAL_10_cxa_eh_cpp_e6d56e8023is_single_level_pointerEPN10__cxxabiv117__pbase_type_infoE
000002f0 t _ZN32_INTERNAL_10_cxa_eh_cpp_e6d56e8021compatible_qualifiersEPN10__cxxabiv117__pbase_type_infoES2_
00000314 t _ZN32_INTERNAL_10_cxa_eh_cpp_e6d56e8037compatible_pointer_to_member_contextsEPN10__cxxabiv117__pbase_type_infoES2_
000003c0 t _ZN32_INTERNAL_10_cxa_eh_cpp_e6d56e8032qualification_conversion_allowedEPN10__cxxabiv117__pbase_type_infoES2_
000004f8 t _ZN32_INTERNAL_10_cxa_eh_cpp_e6d56e8012is_void_typeEPKSt9type_info
00000558 t _ZN32_INTERNAL_10_cxa_eh_cpp_e6d56e8031void_pointer_conversion_allowedEPN10__cxxabiv117__pbase_type_infoES2_
000005bc t _ZN32_INTERNAL_10_cxa_eh_cpp_e6d56e8011check_typesEPKSt9type_infoS2_PvPS3_
000007fc t _ZN32_INTERNAL_10_cxa_eh_cpp_e6d56e8016__cxa_match_typeEPvPKSt9type_infoS3_PS0_
00000000 d __tls___ZN32_INTERNAL_10_cxa_eh_cpp_e6d56e8010__cxxabiv110eh_globalsE
00000e1c t _ZN32_INTERNAL_10_cxa_eh_cpp_e6d56e8010__cxxabiv122__cxa_delete_exceptionEPv
00000fec t _ZN32_INTERNAL_10_cxa_eh_cpp_e6d56e8010__cxxabiv120__cxa_call_terminateEPv
00001074 t _ZN32_INTERNAL_10_cxa_eh_cpp_e6d56e8010__cxxabiv118__cxa_common_throwEPv
000015a4 t _ZN32_INTERNAL_10_cxa_eh_cpp_e6d56e8010__cxxabiv129__cxa_unwind_delete_exceptionE19_Unwind_Reason_CodeP17_Unwind_Exception
00000000 d _ZN32_INTERNAL_10_cxa_eh_cpp_e6d56e8010__cxxabiv110eh_globalsE
00000000 D ___x_diab_cxa_eh_o
00000000 V _ZTVSt9exception
00000000 V _ZTVSt13bad_exception
00000000 V _ZTIv
00000000 V _ZTSv
00000000 V _ZTISt13bad_exception
00000000 V _ZTISt9exception
00000000 V _ZTSSt9exception
00000000 V _ZTSSt13bad_exception
00000000 T __call_terminate
         U _ZSt9terminatev
         U abort
         U __err_printf
         U _savegpr_26
00000004 D __eh_debug
         U __diab_Unwind_ExtendAddress
         U __diab_Unwind_SetArg1
         U __diab_Unwind_SetArg2
         U __diab_Unwind_SetIP
         U _restgpr_26
         U __cxa_bad_typeid
         U _ZTIN10__cxxabiv119__pointer_type_infoE
         U _ZNKSt9type_infoeqERKS_
         U _ZTIN10__cxxabiv129__pointer_to_member_type_infoE
         U _ZNKSt9type_info4nameEv
         U _savegpr_27
         U _restgpr_27
         U _savegpr_24
         U _ZTIN10__cxxabiv120__si_class_type_infoE
         U _ZTIN10__cxxabiv121__vmi_class_type_infoE
         U __derived_to_base_conversion
         U _restgpr_24
0000082c T _Z40__diab_personality_exception_spec_allowsPN10__cxxabiv115__cxa_exceptionEPKSt9type_info
         U _ZN20__et_exception_tableC1EPKcS1_
         U _ZN27__et_action_record_iteratorC1ERK20__et_exception_tablePKc
         U _ZN27__et_action_record_iterator5matchEPvPKSt9type_infoPS0_PFbS0_S3_S3_S4_E
000008e4 T __real_diab_personality_v0
         U _savegpr_22
         U __diab_Unwind_GetIP
         U __diab_Unwind_GetLanguageSpecificData
         U __diab_Unwind_GetRegionStart
         U _ZN23__et_call_site_iteratorC1ERK20__et_exception_table
         U _ZN23__et_call_site_iterator7find_pcEPKc
         U _ZN23__et_call_site_iterator12has_cleanupsEv
         U _ZN27__et_action_record_iteratorC1ERK23__et_call_site_iterator
         U _ZN27__et_action_record_iterator4nextEv
         U _restgpr_22
00000b94 T __diab_personality_v0
         U _savegpr_25
         U _restgpr_25
00000c44 T __eh_alloc_mem
         U malloc
00000c64 T __eh_free_mem
         U free
00000c70 T __cxa_get_globals
         U __tls_lookup
00000c84 T __cxa_get_globals_fast
00000c98 T __cxa_allocate_exception
00000cf8 T __cxa_free_exception
00000d48 T __cxa_begin_catch
00000ef4 T __cxa_end_catch
         U __diab_Unwind_Resume
         U __diab_Unwind_RaiseException
00001184 T __cxa_throw
         U __unexpected_routine
         U __terminate_routine
00001228 T __cxa_current_exception_type
00001268 T __cxa_rethrow
00001304 T __cxa_call_unexpected
00000000 T _ZNSt13bad_exceptionD1Ev
0000146c T __cxa_get_exception_ptr
000014bc T __diab_cxa_get_switch_value
00000000 T _ZNSt9exceptionD1Ev
00000000 T _ZNSt9exceptionD0Ev
         U _ZdlPv
00000000 T _ZNKSt9exception4whatEv
00000000 T _ZNSt13bad_exceptionD0Ev
0000152c T _ZSt18uncaught_exceptionv
         U _ZTVN10__cxxabiv123__fundamental_type_infoE
         U _ZTVN10__cxxabiv120__si_class_type_infoE
         U _ZTVN10__cxxabiv117__class_type_infoE

_x_diab_cxa_eh_diag.o:
00000000 d !cd!_ZTV20__cxa_eh_diagnostics
00000000 d !cd!_ZTI22__I_cxa_eh_diagnostics
00000000 d !cd!_ZTI20__cxa_eh_diagnostics
00000000 d !cd!_ZTS22__I_cxa_eh_diagnostics
00000000 d !cd!_ZTS20__cxa_eh_diagnostics
00000000 D ___x_diab_cxa_eh_diag_o
00000000 V _ZTV20__cxa_eh_diagnostics
00000000 V _ZTI22__I_cxa_eh_diagnostics
00000000 V _ZTI20__cxa_eh_diagnostics
00000000 V _ZTS22__I_cxa_eh_diagnostics
00000000 V _ZTS20__cxa_eh_diagnostics
00000000 T __diab_cxa_debug_landing_pad
         U _savegpr_26
         U printf
         U _ZNKSt9type_info4nameEv
         U _restgpr_26
000000c8 T __diab_cxa_debug
000000e0 T _ZN20__cxa_eh_diagnosticsC1Ei
000000f4 T __eh_enable_diagnostics
         U _Znwj
         U __eh_debug
         U __diab_Unwind_Resume
         U __diab_personality_v0
00000158 T _ZN20__cxa_eh_diagnostics21__cxa_install_contextEP17_Unwind_ExceptioniPKc
000001e0 T _ZN20__cxa_eh_diagnostics18uncaught_exceptionEi
00000228 T _ZN20__cxa_eh_diagnostics24__cxa_allocate_exceptionEPN10__cxxabiv120__diab_cxa_exceptionE
0000024c T _ZN20__cxa_eh_diagnostics20__cxa_free_exceptionEPv
0000026c T _ZN20__cxa_eh_diagnostics22__cxa_delete_exceptionEPv
0000028c T _ZN20__cxa_eh_diagnostics27__cxa_delete_exception_dtorEPv
000002b4 T _ZN20__cxa_eh_diagnostics20__cxa_call_terminateEPv
000002d4 T _ZN20__cxa_eh_diagnostics21__cxa_call_unexpectedEPv
000002f4 T _ZN20__cxa_eh_diagnostics23__cxa_get_exception_ptrEPv
00000314 T _ZN20__cxa_eh_diagnostics17__cxa_begin_catchEPv
00000334 T _ZN20__cxa_eh_diagnostics15__cxa_end_catchEv
00000354 T _ZN20__cxa_eh_diagnostics18__cxa_common_throwEPv
00000374 T _ZN20__cxa_eh_diagnostics25__cxa_common_throw_beforeEP17_Unwind_Exception
00000394 T _ZN20__cxa_eh_diagnostics24__cxa_common_throw_afterEP17_Unwind_Exception
000003b4 T _ZN20__cxa_eh_diagnostics11__cxa_throwEPvPN10__cxxabiv115__cxa_exceptionE
0000043c T _ZN20__cxa_eh_diagnostics13__cxa_rethrowEv
0000045c T _ZN20__cxa_eh_diagnostics28__diab_personality_v0_beforeEiyP17_Unwind_ExceptionP15_Unwind_Context
         U __diab_Unwind_GetIP
000005a4 T _ZN20__cxa_eh_diagnostics27__diab_personality_v0_startEPKcS1_RK20__et_exception_table
0000065c T _ZN20__cxa_eh_diagnostics35__diab_personality_v0_action_recordERK27__et_action_record_iterator
         U _ZNK27__et_action_record_iterator17print_type_filterEv
000006d0 T _ZN20__cxa_eh_diagnostics35__diab_personality_v0_handler_foundEv
000006f0 T _ZN20__cxa_eh_diagnostics27__diab_personality_v0_afterEP17_Unwind_Exception19_Unwind_Reason_Code
000007b4 T _ZN20__cxa_eh_diagnostics40__diab_personality_exception_spec_allowsEPKSt9type_infoRK27__et_action_record_iteratorb
0000088c T _ZN20__cxa_eh_diagnosticsC2Ei
         U _ZTVN10__cxxabiv117__class_type_infoE
         U _ZTVN10__cxxabiv120__si_class_type_infoE

_x_diab_cxa_except_tab.o:
00000000 D ___x_diab_cxa_except_tab_o
00000000 T _Z14__get_uleb128fPPKc
00000038 T _Z13__get_leb128fPPKc
00000084 T _ZN20__et_exception_tableC1EPKcS1_
000000dc T _ZN20__et_exception_tableC2EPKcS1_
000000e8 T _ZN23__et_call_site_iterator4nextEv
0000017c T _ZN23__et_call_site_iterator7find_pcEPKc
000001d4 T _ZN27__et_action_record_iterator4nextEv
0000029c T _ZN27__et_action_record_iteratorC1ERK23__et_call_site_iterator
000002f0 T _ZN23__et_call_site_iterator12has_cleanupsEv
0000034c T _ZN23__et_call_site_iteratorC1ERK20__et_exception_table
00000370 T _ZN23__et_call_site_iteratorC2ERK20__et_exception_table
0000037c T _ZN28__et_exception_spec_iterator4nextEv
000003cc T _ZN28__et_exception_spec_iteratorC1ERK27__et_action_record_iteratorPKPKSt9type_info
000003ec T _ZN27__et_action_record_iterator5matchEPvPKSt9type_infoPS0_PFbS0_S3_S3_S4_E
         U _savegpr_27
         U _restgpr_27
000004c8 T _ZNK27__et_action_record_iterator17print_type_filterEv
         U printf
         U _ZNKSt9type_info4nameEv
000005ac T _ZN27__et_action_record_iteratorC2ERK23__et_call_site_iterator
000005b8 T _ZN27__et_action_record_iteratorC1ERK20__et_exception_tablePKc
000005e0 T _ZN27__et_action_record_iteratorC2ERK20__et_exception_tablePKc
000005ec T _ZN28__et_exception_spec_iteratorC2ERK27__et_action_record_iteratorPKPKSt9type_info

_x_diab_delete.o:
00000000 D ___x_diab_delete_o
00000000 T _ZdlPv
         U __cpp_free
         U __cxa_call_unexpected
         U __diab_personality_v0

_x_diab_delnothrow.o:
00000000 D ___x_diab_delnothrow_o
00000000 T _ZdlPvRKSt9nothrow_t
         U _ZdlPv

_x_diab_error.o:
00000000 t _ZN30_INTERNAL_9_error_cpp_96006b1010error_textE13an_error_code
0000014c t _ZN30_INTERNAL_9_error_cpp_96006b1021display_abort_messageE13an_error_code
00000000 D ___x_diab_error_o
         U __err_printf
         U abort
00000190 T __abort_execution

_x_diab_guard.o:
00000000 D ___x_diab_guard_o
00000000 T __cxa_guard_acquire
         U __diab_cxa_guard_recursive
00000058 T __cxa_guard_release
00000064 T __cxa_guard_abort

_x_diab_diab_cxa_guard_recursive.o:
00000000 D ___x_diab_diab_cxa_guard_recursive_o
00000000 T __diab_cxa_guard_recursive
         U __abort_execution

_x_diab_new.o:
00000000 d !cd!_ZTISt9exception
00000000 d !cd!_ZTISt9bad_alloc
00000000 d !cd!_ZTSSt9exception
00000000 d !cd!_ZTSSt9bad_alloc
00000000 D ___x_diab_new_o
00000000 V _ZTISt9exception
00000000 V _ZTISt9bad_alloc
00000000 V _ZTSSt9exception
00000000 V _ZTSSt9bad_alloc
00000000 T _Znwj
         U __cpp_alloc
         U _new_handler
         U _Z21__default_new_handlerv
         U __cxa_call_unexpected
         U __diab_Unwind_Resume
         U __diab_personality_v0
         U _ZTVN10__cxxabiv117__class_type_infoE
         U _ZTVN10__cxxabiv120__si_class_type_infoE

_x_diab_newhandler.o:
00000000 t !cd!_ZNSt9exceptionD1Ev
00000000 t !cd!_ZNSt9exceptionD0Ev
00000000 t !cd!_ZNKSt9exception4whatEv
00000000 t !cd!_ZNSt9bad_allocD1Ev
00000000 t !cd!_ZNSt9bad_allocD0Ev
00000000 t !cd!_ZNSt20bad_array_new_lengthD1Ev
00000000 t !cd!_ZNSt20bad_array_new_lengthD0Ev
00000000 d !cd!_ZTVSt9exception
00000000 d !cd!_ZTVSt9bad_alloc
00000000 d !cd!_ZTVSt20bad_array_new_length
00000000 t !cd!_ZZNSt20bad_array_new_lengthC1EvEs
00000000 d !cd!_ZTISt9exception
00000000 d !cd!_ZTISt9bad_alloc
00000000 d !cd!_ZTISt20bad_array_new_length
00000000 d !cd!_ZTSSt9exception
00000000 d !cd!_ZTSSt9bad_alloc
00000000 d !cd!_ZTSSt20bad_array_new_length
00000000 D ___x_diab_newhandler_o
00000000 V _ZTVSt9exception
00000000 V _ZTVSt9bad_alloc
00000000 V _ZTVSt20bad_array_new_length
00000000 V _ZZNSt20bad_array_new_lengthC1EvEs
00000000 V _ZTISt9exception
00000000 V _ZTISt9bad_alloc
00000000 V _ZTISt20bad_array_new_length
00000000 V _ZTSSt9exception
00000000 V _ZTSSt9bad_alloc
00000000 V _ZTSSt20bad_array_new_length
00000000 T _Z21__default_new_handlerv
         U __cxa_allocate_exception
00000000 T _ZNSt9bad_allocD1Ev
         U __cxa_throw
00000054 T __throw_bad_array_new_length
00000000 T _ZNSt20bad_array_new_lengthD1Ev
00000000 T _ZNSt9exceptionD1Ev
00000000 T _ZNSt9exceptionD0Ev
         U _ZdlPv
00000000 T _ZNKSt9exception4whatEv
00000000 T _ZNSt9bad_allocD0Ev
00000000 T _ZNSt20bad_array_new_lengthD0Ev
00000004 D _new_handler
         U _ZTVN10__cxxabiv117__class_type_infoE
         U _ZTVN10__cxxabiv120__si_class_type_infoE

_x_diab_newnothrow.o:
00000000 d !cd!_ZTISt9bad_alloc
00000000 d !cd!_ZTISt9exception
00000000 d !cd!_ZTSSt9exception
00000000 d !cd!_ZTSSt9bad_alloc
00000000 t _ZN36_INTERNAL_14_newnothrow_cpp_c388d38d16call_new_handlerEv
00000000 D ___x_diab_newnothrow_o
00000000 V _ZTISt9bad_alloc
00000000 V _ZTISt9exception
00000000 V _ZTSSt9exception
00000000 V _ZTSSt9bad_alloc
         U _new_handler
         U _Z21__default_new_handlerv
         U __cxa_get_exception_ptr
         U __cxa_begin_catch
         U __cxa_end_catch
         U __diab_Unwind_Resume
         U __diab_personality_v0
00000084 T _ZnwjRKSt9nothrow_t
         U __cpp_alloc
         U __cxa_call_unexpected
         U _ZTVN10__cxxabiv120__si_class_type_infoE
         U _ZTVN10__cxxabiv117__class_type_infoE

_x_diab_nothrow.o:
00000000 D ___x_diab_nothrow_o
00000000 D _ZSt7nothrow

_x_diab_placedel.o:
00000000 D ___x_diab_placedel_o
00000000 T _ZdlPvS_

_x_diab_pure_virt.o:
00000000 D ___x_diab_pure_virt_o
00000000 T __cxa_pure_virtual
         U __abort_execution

_x_diab_del_virt.o:
00000000 D ___x_diab_del_virt_o
00000000 T __cxa_deleted_virtual
         U __abort_execution

_x_diab_rtti.o:
00000000 t !cd!_ZNSt9exceptionD1Ev
00000000 t !cd!_ZNSt9exceptionD0Ev
00000000 t !cd!_ZNKSt9exception4whatEv
00000000 t !cd!_ZNKSt8bad_cast4whatEv
00000000 t !cd!_ZNSt8bad_castD1Ev
00000000 t !cd!_ZNSt8bad_castD0Ev
00000000 t !cd!_ZNKSt10bad_typeid4whatEv
00000000 t !cd!_ZNSt10bad_typeidD1Ev
00000000 t !cd!_ZNSt10bad_typeidD0Ev
00000000 d !cd!_ZTVSt9exception
00000000 d !cd!_ZTVSt8bad_cast
00000000 t !cd!_ZZNKSt8bad_cast4whatEvEs
00000000 d !cd!_ZTVSt10bad_typeid
00000000 t !cd!_ZZNKSt10bad_typeid4whatEvEs
00000000 d !cd!_ZTISt9exception
00000000 d !cd!_ZTISt8bad_cast
00000000 d !cd!_ZTISt10bad_typeid
00000000 d !cd!_ZTSSt9exception
00000000 d !cd!_ZTSSt8bad_cast
00000000 d !cd!_ZTSSt10bad_typeid
00000000 t _ZN29_INTERNAL_8_rtti_cpp_066a44b032clear_base_class_traversal_blockEP28a_base_class_traversal_block
00000030 t _ZN29_INTERNAL_8_rtti_cpp_066a44b010is_virtualEPN10__cxxabiv122__base_class_type_infoE
0000004c t _ZN29_INTERNAL_8_rtti_cpp_066a44b024get_virtual_base_pointerEPvPN10__cxxabiv122__base_class_type_infoE
000000b8 t _ZN29_INTERNAL_8_rtti_cpp_066a44b021traverse_base_classesEPvPKSt9type_infoP28a_base_class_traversal_blockPN10__cxxabiv122__base_class_type_infoE
00000218 t _ZN29_INTERNAL_8_rtti_cpp_066a44b028derived_to_base_conversion_rEPvPS0_PKSt9type_infoS4_jPiiPS4_P19a_result_virtualityS5_
000006c4 t _ZN29_INTERNAL_8_rtti_cpp_066a44b023find_base_class_at_addrEPvS0_PKSt9type_infoS3_Pi
00000880 t _ZN29_INTERNAL_8_rtti_cpp_066a44b012tbc_downcastEPvPKSt9type_infoP28a_base_class_traversal_blockPN10__cxxabiv122__base_class_type_infoE
00000964 t _ZN29_INTERNAL_8_rtti_cpp_066a44b017tbc_post_downcastEPvPKSt9type_infoP28a_base_class_traversal_blockPN10__cxxabiv122__base_class_type_infoE
000009d0 t _ZN29_INTERNAL_8_rtti_cpp_066a44b012try_downcastEPvPKSt9type_infoS0_S3_S3_
00000000 D ___x_diab_rtti_o
00000000 V _ZTVSt9exception
00000000 V _ZTVSt8bad_cast
00000000 V _ZZNKSt8bad_cast4whatEvEs
00000000 V _ZTVSt10bad_typeid
00000000 V _ZZNKSt10bad_typeid4whatEvEs
00000000 V _ZTISt9exception
00000000 V _ZTISt8bad_cast
00000000 V _ZTISt10bad_typeid
00000000 V _ZTSSt9exception
00000000 V _ZTSSt8bad_cast
00000000 V _ZTSSt10bad_typeid
00000064 T __cxa_bad_typeid
         U __cxa_allocate_exception
00000000 T _ZNSt10bad_typeidD1Ev
         U __cxa_throw
         U _savegpr_27
         U _ZTIN10__cxxabiv120__si_class_type_infoE
         U _ZNKSt9type_infoeqERKS_
         U _ZTIN10__cxxabiv121__vmi_class_type_infoE
         U _restgpr_27
         U _savegpr_16
         U _ZNKSt9type_info4nameEv
         U _restgpr_16
000005d4 T __derived_to_base_conversion
         U _savegpr_23
         U _restgpr_23
00000a30 T __dynamic_cast
00000b48 T __cxa_bad_cast
00000000 T _ZNSt8bad_castD1Ev
00000000 T _ZNSt9exceptionD1Ev
00000000 T _ZNSt9exceptionD0Ev
         U _ZdlPv
00000000 T _ZNKSt9exception4whatEv
00000000 T _ZNKSt8bad_cast4whatEv
00000000 T _ZNSt8bad_castD0Ev
00000000 T _ZNKSt10bad_typeid4whatEv
00000000 T _ZNSt10bad_typeidD0Ev
         U _ZTVN10__cxxabiv117__class_type_infoE
         U _ZTVN10__cxxabiv120__si_class_type_infoE

_x_diab_set_new.o:
00000000 D ___x_diab_set_new_o
00000000 T _ZSt15set_new_handlerPFvvE
         U _new_handler

_x_diab_setterm.o:
00000000 D ___x_diab_setterm_o
00000000 T __terminate_routine
         U __default_terminate_routine
0000000c T _ZSt13set_terminatePFvvE

_x_diab_setunexp.o:
00000000 D ___x_diab_setunexp_o
00000000 T __unexpected_routine
         U __default_unexpected_routine
0000000c T _ZSt14set_unexpectedPFvvE

_x_diab_terminate.o:
00000000 t _ZN35_INTERNAL_13_terminate_cpp_6bf4626219__default_terminateEv
00000000 D ___x_diab_terminate_o
         U __abort_execution
00000010 T _ZSt9terminatev
00000004 D __default_terminate_routine

_x_diab_typeinfo.o:
00000000 d !cd!_ZTVSt9type_info
00000000 d !cd!_ZTVN10__cxxabiv123__fundamental_type_infoE
00000000 d !cd!_ZTVN10__cxxabiv117__array_type_infoE
00000000 d !cd!_ZTVN10__cxxabiv120__function_type_infoE
00000000 d !cd!_ZTVN10__cxxabiv116__enum_type_infoE
00000000 d !cd!_ZTVN10__cxxabiv117__class_type_infoE
00000000 d !cd!_ZTVN10__cxxabiv120__si_class_type_infoE
00000000 d !cd!_ZTVN10__cxxabiv121__vmi_class_type_infoE
00000000 d !cd!_ZTVN10__cxxabiv117__pbase_type_infoE
00000000 d !cd!_ZTVN10__cxxabiv119__pointer_type_infoE
00000000 d !cd!_ZTVN10__cxxabiv129__pointer_to_member_type_infoE
00000000 d !cd!_ZTISt9type_info
00000000 d !cd!_ZTIN10__cxxabiv123__fundamental_type_infoE
00000000 d !cd!_ZTIN10__cxxabiv117__array_type_infoE
00000000 d !cd!_ZTIN10__cxxabiv120__function_type_infoE
00000000 d !cd!_ZTIN10__cxxabiv116__enum_type_infoE
00000000 d !cd!_ZTIN10__cxxabiv117__class_type_infoE
00000000 d !cd!_ZTIN10__cxxabiv120__si_class_type_infoE
00000000 d !cd!_ZTIN10__cxxabiv121__vmi_class_type_infoE
00000000 d !cd!_ZTIN10__cxxabiv117__pbase_type_infoE
00000000 d !cd!_ZTIN10__cxxabiv119__pointer_type_infoE
00000000 d !cd!_ZTIN10__cxxabiv129__pointer_to_member_type_infoE
00000000 d !cd!_ZTSSt9type_info
00000000 d !cd!_ZTSN10__cxxabiv123__fundamental_type_infoE
00000000 d !cd!_ZTSN10__cxxabiv117__array_type_infoE
00000000 d !cd!_ZTSN10__cxxabiv120__function_type_infoE
00000000 d !cd!_ZTSN10__cxxabiv116__enum_type_infoE
00000000 d !cd!_ZTSN10__cxxabiv117__class_type_infoE
00000000 d !cd!_ZTSN10__cxxabiv120__si_class_type_infoE
00000000 d !cd!_ZTSN10__cxxabiv121__vmi_class_type_infoE
00000000 d !cd!_ZTSN10__cxxabiv117__pbase_type_infoE
00000000 d !cd!_ZTSN10__cxxabiv119__pointer_type_infoE
00000000 d !cd!_ZTSN10__cxxabiv129__pointer_to_member_type_infoE
00000000 d !cd!_ZTIPKDn
00000000 d !cd!_ZTSPKDn
00000000 d !cd!_ZTIDn
00000000 d !cd!_ZTSDn
00000000 d !cd!_ZTIPDn
00000000 d !cd!_ZTSPDn
00000000 d !cd!_ZTIPKe
00000000 d !cd!_ZTSPKe
00000000 d !cd!_ZTIe
00000000 d !cd!_ZTSe
00000000 d !cd!_ZTIPe
00000000 d !cd!_ZTSPe
00000000 d !cd!_ZTIPKd
00000000 d !cd!_ZTSPKd
00000000 d !cd!_ZTId
00000000 d !cd!_ZTSd
00000000 d !cd!_ZTIPd
00000000 d !cd!_ZTSPd
00000000 d !cd!_ZTIPKf
00000000 d !cd!_ZTSPKf
00000000 d !cd!_ZTIf
00000000 d !cd!_ZTSf
00000000 d !cd!_ZTIPf
00000000 d !cd!_ZTSPf
00000000 d !cd!_ZTIPKy
00000000 d !cd!_ZTSPKy
00000000 d !cd!_ZTIy
00000000 d !cd!_ZTSy
00000000 d !cd!_ZTIPy
00000000 d !cd!_ZTSPy
00000000 d !cd!_ZTIPKx
00000000 d !cd!_ZTSPKx
00000000 d !cd!_ZTIx
00000000 d !cd!_ZTSx
00000000 d !cd!_ZTIPx
00000000 d !cd!_ZTSPx
00000000 d !cd!_ZTIPKm
00000000 d !cd!_ZTSPKm
00000000 d !cd!_ZTIm
00000000 d !cd!_ZTSm
00000000 d !cd!_ZTIPm
00000000 d !cd!_ZTSPm
00000000 d !cd!_ZTIPKl
00000000 d !cd!_ZTSPKl
00000000 d !cd!_ZTIl
00000000 d !cd!_ZTSl
00000000 d !cd!_ZTIPl
00000000 d !cd!_ZTSPl
00000000 d !cd!_ZTIPKj
00000000 d !cd!_ZTSPKj
00000000 d !cd!_ZTIj
00000000 d !cd!_ZTSj
00000000 d !cd!_ZTIPj
00000000 d !cd!_ZTSPj
00000000 d !cd!_ZTIPKi
00000000 d !cd!_ZTSPKi
00000000 d !cd!_ZTIi
00000000 d !cd!_ZTSi
00000000 d !cd!_ZTIPi
00000000 d !cd!_ZTSPi
00000000 d !cd!_ZTIPKt
00000000 d !cd!_ZTSPKt
00000000 d !cd!_ZTIt
00000000 d !cd!_ZTSt
00000000 d !cd!_ZTIPt
00000000 d !cd!_ZTSPt
00000000 d !cd!_ZTIPKs
00000000 d !cd!_ZTSPKs
00000000 d !cd!_ZTIs
00000000 d !cd!_ZTSs
00000000 d !cd!_ZTIPs
00000000 d !cd!_ZTSPs
00000000 d !cd!_ZTIPKh
00000000 d !cd!_ZTSPKh
00000000 d !cd!_ZTIh
00000000 d !cd!_ZTSh
00000000 d !cd!_ZTIPh
00000000 d !cd!_ZTSPh
00000000 d !cd!_ZTIPKa
00000000 d !cd!_ZTSPKa
00000000 d !cd!_ZTIa
00000000 d !cd!_ZTSa
00000000 d !cd!_ZTIPa
00000000 d !cd!_ZTSPa
00000000 d !cd!_ZTIPKc
00000000 d !cd!_ZTSPKc
00000000 d !cd!_ZTIc
00000000 d !cd!_ZTSc
00000000 d !cd!_ZTIPc
00000000 d !cd!_ZTSPc
00000000 d !cd!_ZTIPKDi
00000000 d !cd!_ZTSPKDi
00000000 d !cd!_ZTIDi
00000000 d !cd!_ZTSDi
00000000 d !cd!_ZTIPDi
00000000 d !cd!_ZTSPDi
00000000 d !cd!_ZTIPKDs
00000000 d !cd!_ZTSPKDs
00000000 d !cd!_ZTIDs
00000000 d !cd!_ZTSDs
00000000 d !cd!_ZTIPDs
00000000 d !cd!_ZTSPDs
00000000 d !cd!_ZTIPKw
00000000 d !cd!_ZTSPKw
00000000 d !cd!_ZTIw
00000000 d !cd!_ZTSw
00000000 d !cd!_ZTIPw
00000000 d !cd!_ZTSPw
00000000 d !cd!_ZTIPKb
00000000 d !cd!_ZTSPKb
00000000 d !cd!_ZTIb
00000000 d !cd!_ZTSb
00000000 d !cd!_ZTIPb
00000000 d !cd!_ZTSPb
00000000 d !cd!_ZTIPKv
00000000 d !cd!_ZTSPKv
00000000 d !cd!_ZTIv
00000000 d !cd!_ZTSv
00000000 d !cd!_ZTIPv
00000000 d !cd!_ZTSPv
00000000 D ___x_diab_typeinfo_o
00000000 V _ZTVSt9type_info
00000000 V _ZTVN10__cxxabiv123__fundamental_type_infoE
00000000 V _ZTVN10__cxxabiv117__array_type_infoE
00000000 V _ZTVN10__cxxabiv120__function_type_infoE
00000000 V _ZTVN10__cxxabiv116__enum_type_infoE
00000000 V _ZTVN10__cxxabiv117__class_type_infoE
00000000 V _ZTVN10__cxxabiv120__si_class_type_infoE
00000000 V _ZTVN10__cxxabiv121__vmi_class_type_infoE
00000000 V _ZTVN10__cxxabiv117__pbase_type_infoE
00000000 V _ZTVN10__cxxabiv119__pointer_type_infoE
00000000 V _ZTVN10__cxxabiv129__pointer_to_member_type_infoE
00000000 V _ZTISt9type_info
00000000 V _ZTIN10__cxxabiv123__fundamental_type_infoE
00000000 V _ZTIN10__cxxabiv117__array_type_infoE
00000000 V _ZTIN10__cxxabiv120__function_type_infoE
00000000 V _ZTIN10__cxxabiv116__enum_type_infoE
00000000 V _ZTIN10__cxxabiv117__class_type_infoE
00000000 V _ZTIN10__cxxabiv120__si_class_type_infoE
00000000 V _ZTIN10__cxxabiv121__vmi_class_type_infoE
00000000 V _ZTIN10__cxxabiv117__pbase_type_infoE
00000000 V _ZTIN10__cxxabiv119__pointer_type_infoE
00000000 V _ZTIN10__cxxabiv129__pointer_to_member_type_infoE
00000000 V _ZTSSt9type_info
00000000 V _ZTSN10__cxxabiv123__fundamental_type_infoE
00000000 V _ZTSN10__cxxabiv117__array_type_infoE
00000000 V _ZTSN10__cxxabiv120__function_type_infoE
00000000 V _ZTSN10__cxxabiv116__enum_type_infoE
00000000 V _ZTSN10__cxxabiv117__class_type_infoE
00000000 V _ZTSN10__cxxabiv120__si_class_type_infoE
00000000 V _ZTSN10__cxxabiv121__vmi_class_type_infoE
00000000 V _ZTSN10__cxxabiv117__pbase_type_infoE
00000000 V _ZTSN10__cxxabiv119__pointer_type_infoE
00000000 V _ZTSN10__cxxabiv129__pointer_to_member_type_infoE
00000000 V _ZTIPKDn
00000000 V _ZTSPKDn
00000000 V _ZTIDn
00000000 V _ZTSDn
00000000 V _ZTIPDn
00000000 V _ZTSPDn
00000000 V _ZTIPKe
00000000 V _ZTSPKe
00000000 V _ZTIe
00000000 V _ZTSe
00000000 V _ZTIPe
00000000 V _ZTSPe
00000000 V _ZTIPKd
00000000 V _ZTSPKd
00000000 V _ZTId
00000000 V _ZTSd
00000000 V _ZTIPd
00000000 V _ZTSPd
00000000 V _ZTIPKf
00000000 V _ZTSPKf
00000000 V _ZTIf
00000000 V _ZTSf
00000000 V _ZTIPf
00000000 V _ZTSPf
00000000 V _ZTIPKy
00000000 V _ZTSPKy
00000000 V _ZTIy
00000000 V _ZTSy
00000000 V _ZTIPy
00000000 V _ZTSPy
00000000 V _ZTIPKx
00000000 V _ZTSPKx
00000000 V _ZTIx
00000000 V _ZTSx
00000000 V _ZTIPx
00000000 V _ZTSPx
00000000 V _ZTIPKm
00000000 V _ZTSPKm
00000000 V _ZTIm
00000000 V _ZTSm
00000000 V _ZTIPm
00000000 V _ZTSPm
00000000 V _ZTIPKl
00000000 V _ZTSPKl
00000000 V _ZTIl
00000000 V _ZTSl
00000000 V _ZTIPl
00000000 V _ZTSPl
00000000 V _ZTIPKj
00000000 V _ZTSPKj
00000000 V _ZTIj
00000000 V _ZTSj
00000000 V _ZTIPj
00000000 V _ZTSPj
00000000 V _ZTIPKi
00000000 V _ZTSPKi
00000000 V _ZTIi
00000000 V _ZTSi
00000000 V _ZTIPi
00000000 V _ZTSPi
00000000 V _ZTIPKt
00000000 V _ZTSPKt
00000000 V _ZTIt
00000000 V _ZTSt
00000000 V _ZTIPt
00000000 V _ZTSPt
00000000 V _ZTIPKs
00000000 V _ZTSPKs
00000000 V _ZTIs
00000000 V _ZTSs
00000000 V _ZTIPs
00000000 V _ZTSPs
00000000 V _ZTIPKh
00000000 V _ZTSPKh
00000000 V _ZTIh
00000000 V _ZTSh
00000000 V _ZTIPh
00000000 V _ZTSPh
00000000 V _ZTIPKa
00000000 V _ZTSPKa
00000000 V _ZTIa
00000000 V _ZTSa
00000000 V _ZTIPa
00000000 V _ZTSPa
00000000 V _ZTIPKc
00000000 V _ZTSPKc
00000000 V _ZTIc
00000000 V _ZTSc
00000000 V _ZTIPc
00000000 V _ZTSPc
00000000 V _ZTIPKDi
00000000 V _ZTSPKDi
00000000 V _ZTIDi
00000000 V _ZTSDi
00000000 V _ZTIPDi
00000000 V _ZTSPDi
00000000 V _ZTIPKDs
00000000 V _ZTSPKDs
00000000 V _ZTIDs
00000000 V _ZTSDs
00000000 V _ZTIPDs
00000000 V _ZTSPDs
00000000 V _ZTIPKw
00000000 V _ZTSPKw
00000000 V _ZTIw
00000000 V _ZTSw
00000000 V _ZTIPw
00000000 V _ZTSPw
00000000 V _ZTIPKb
00000000 V _ZTSPKb
00000000 V _ZTIb
00000000 V _ZTSb
00000000 V _ZTIPb
00000000 V _ZTSPb
00000000 V _ZTIPKv
00000000 V _ZTSPKv
00000000 V _ZTIv
00000000 V _ZTSv
00000000 V _ZTIPv
00000000 V _ZTSPv
00000000 T _ZNSt9type_infoD1Ev
00000010 T _ZNSt9type_infoD0Ev
         U _ZdlPv
00000028 T _ZNSt9type_infoD2Ev
00000038 T _ZNKSt9type_info6beforeERKS_
00000054 T _ZNKSt9type_infoeqERKS_
0000007c T _ZNKSt9type_infoneERKS_
000000a4 T _ZNKSt9type_info4nameEv
000000ac T _ZN10__cxxabiv123__fundamental_type_infoD1Ev
000000bc T _ZN10__cxxabiv123__fundamental_type_infoD0Ev
000000dc T _ZN10__cxxabiv123__fundamental_type_infoD2Ev
000000e8 T _ZN10__cxxabiv117__array_type_infoD1Ev
000000f8 T _ZN10__cxxabiv117__array_type_infoD0Ev
00000118 T _ZN10__cxxabiv117__array_type_infoD2Ev
00000124 T _ZN10__cxxabiv120__function_type_infoD1Ev
00000134 T _ZN10__cxxabiv120__function_type_infoD0Ev
00000154 T _ZN10__cxxabiv120__function_type_infoD2Ev
00000160 T _ZN10__cxxabiv116__enum_type_infoD1Ev
00000170 T _ZN10__cxxabiv116__enum_type_infoD0Ev
00000190 T _ZN10__cxxabiv116__enum_type_infoD2Ev
0000019c T _ZN10__cxxabiv117__class_type_infoD1Ev
000001ac T _ZN10__cxxabiv117__class_type_infoD0Ev
000001cc T _ZN10__cxxabiv117__class_type_infoD2Ev
000001d8 T _ZN10__cxxabiv120__si_class_type_infoD1Ev
000001f0 T _ZN10__cxxabiv120__si_class_type_infoD0Ev
00000210 T _ZN10__cxxabiv120__si_class_type_infoD2Ev
0000021c T _ZN10__cxxabiv121__vmi_class_type_infoD1Ev
00000234 T _ZN10__cxxabiv121__vmi_class_type_infoD0Ev
00000254 T _ZN10__cxxabiv121__vmi_class_type_infoD2Ev
00000260 T _ZN10__cxxabiv117__pbase_type_infoD1Ev
00000270 T _ZN10__cxxabiv117__pbase_type_infoD0Ev
00000290 T _ZN10__cxxabiv117__pbase_type_infoD2Ev
0000029c T _ZN10__cxxabiv119__pointer_type_infoD1Ev
000002b4 T _ZN10__cxxabiv119__pointer_type_infoD0Ev
000002d4 T _ZN10__cxxabiv119__pointer_type_infoD2Ev
000002e0 T _ZN10__cxxabiv129__pointer_to_member_type_infoD1Ev
000002f8 T _ZN10__cxxabiv129__pointer_to_member_type_infoD0Ev
00000318 T _ZN10__cxxabiv129__pointer_to_member_type_infoD2Ev
00000004 D _ZSt16__dummy_typeinfo

_x_diab_unexpected.o:
00000000 D ___x_diab_unexpected_o
00000000 T _ZSt10unexpectedv
00000004 D __default_unexpected_routine
         U _ZSt9terminatev

_x_diab_vec_newdel.o:
00000000 t _ZN36_INTERNAL_14_vec_newdel_cpp_8a08d4a511alloc_arrayEjjPFPvjE
00000054 t _ZN36_INTERNAL_14_vec_newdel_cpp_8a08d4a510free_arrayEPvjjPFvS0_Ei
000000a8 t _ZN36_INTERNAL_14_vec_newdel_cpp_8a08d4a517array_new_generalEPvijjS0_PFvS0_ES2_PFS0_jES2_ii
000003f0 t _ZN36_INTERNAL_14_vec_newdel_cpp_8a08d4a520array_delete_generalEPvijjPFvS0_EiS2_ii
00000000 D ___x_diab_vec_newdel_o
         U _Znaj
         U _ZdaPv
         U _savegpr_19
         U __throw_bad_array_new_length
         U memset
         U __cxa_end_catch
         U __diab_Unwind_Resume
         U __cxa_begin_catch
         U __call_terminate
         U __cxa_rethrow
         U _restgpr_19
         U __diab_personality_v0
00000270 T __cxa_vec_new
000002c0 T __cxa_vec_new2
00000310 T __cxa_vec_new3
00000364 T __cxa_vec_ctor
000003a4 T __cxa_vec_cctor
0000054c T __cxa_vec_dtor
00000584 T __cxa_vec_delete
000005c4 T __cxa_vec_delete2
00000604 T __cxa_vec_delete3
00000648 T __cxa_vec_cleanup
00000688 T __cxa_throw_bad_array_new_length

_x_diab_err_printf.o:
00000000 D ___x_diab_err_printf_o
00000000 T __err_printf
         U vsprintf
         U strlen
         U write

__dplusplus_intrinsics.o:
00000000 d __dplusplus_intrinsics
00000000 T __dplusplus_intrinsicsInit
         U ___x_diab_array_del_o
         U ___x_diab_array_new_o
         U ___x_diab_array_nodel_o
         U ___x_diab_array_nonew_o
         U ___x_diab_array_pdel_o
         U ___x_diab_cppalloc_o
         U ___x_diab_cxa_eh_o
         U ___x_diab_cxa_eh_diag_o
         U ___x_diab_cxa_except_tab_o
         U ___x_diab_delete_o
         U ___x_diab_delnothrow_o
         U ___x_diab_error_o
         U ___x_diab_guard_o
         U ___x_diab_diab_cxa_guard_recursive_o
         U ___x_diab_new_o
         U ___x_diab_newhandler_o
         U ___x_diab_newnothrow_o
         U ___x_diab_nothrow_o
         U ___x_diab_placedel_o
         U ___x_diab_pure_virt_o
         U ___x_diab_del_virt_o
         U ___x_diab_rtti_o
         U ___x_diab_set_new_o
         U ___x_diab_setterm_o
         U ___x_diab_setunexp_o
         U ___x_diab_terminate_o
         U ___x_diab_typeinfo_o
         U ___x_diab_unexpected_o
         U ___x_diab_vec_newdel_o
         U ___x_diab_err_printf_o

_x_diab_unwind_fi.o:
00000054 t _Unwind_Call_Personality_Routine
000000a4 t _Unwind_Frame
000001e8 t _Unwind_RaiseException_Phase1
00000294 t _Unwind_SkipFrames
000002f4 t _Unwind_RaiseException_Phase2
0000037c t _Unwind_SetCPUState
000003ac t _Unwind_CommonRaiseException
00000000 D ___x_diab_unwind_fi_o
00000000 T __diab_Unwind_GetIP
00000008 T __diab_Unwind_SetIP
00000010 T __diab_Unwind_GetLanguageSpecificData
00000018 T __diab_Unwind_GetRegionStart
00000020 T __diab_Unwind_GetGR
00000030 T __diab_Unwind_SetGR
00000040 T __diab_Unwind_SetArg1
00000048 T __diab_Unwind_SetArg2
00000050 T __diab_Unwind_ExtendAddress
         U _savegpr_26
         U __frameinfo_unwind_frame
         U __frameinfo_find_frame
         U __err_printf
         U abort
         U _restgpr_26
         U __rta_longjmp
         U __common_long_jmp
000006c4 T __diab_Unwind_RaiseException
000006ec T __diab_Unwind_Resume

_x_diab_frameinfo.o:
00000000 D ___x_diab_frameinfo_o
00000000 T __frameinfo_unwind_frame
0000027c T __frameinfo_find_frame
         U __frameinfo_find

_x_diab_framedb.o:
00000000 t findentry
00000004 b _FrameInfoSize
00000000 b _FrameInfoRoot
00000008 b _FrameInfoMax
00000000 D ___x_diab_framedb_o
00000038 T __frameinfo_add
         U _savegpr_26
         U realloc
         U abort
         U malloc
         U memmove
         U _restgpr_26
000001b4 T __frameinfo_del
00000244 T __frameinfo_find

_x_diab_frameadd.o:
00000000 d .abbrev_start
0000004b d .global_end
00000004 d .global_start
0000004a d .sibling_target
00000000 D ___x_diab_frameadd_o
00000000 T _STI__15__frameinfo_add
00000000 D __frame_info_start
00000000 D __frame_info_end
         U __frameinfo_add
0000001c T _STD__15__frameinfo_add
         U __frameinfo_del
00000038 T __frameinfo_used
         U __common_long_jmp
         U __diab_Unwind_RaiseException

__diab_intrinsics_impfp_cplus.o:
00000000 d __diab_intrinsics_impfp_cplus
00000000 T __diab_intrinsics_impfp_cplusInit
         U ___x_diab_unwind_fi_o
         U ___x_diab_frameinfo_o
         U ___x_diab_framedb_o
         U ___x_diab_frameadd_o
