Symbol ___x_gnu_atexit_arm_o {
}
Symbol __gthread_key_create {
}
Symbol __gthread_setspecific {
}
Symbol __dso_handle {
}
Symbol __gthread_once {
}
Symbol __gxx_personality_v0 {
}
Symbol _Unwind_Resume {
}
Symbol __cxa_thread_atexit {
}
Symbol __cxa_atexit {
}
Symbol __gthread_key_delete {
}
Symbol atexit {
}
Symbol __cxa_guard_release {
}
Symbol __cxa_guard_abort {
}
Symbol _ZSt7nothrow {
}
Symbol __gthread_getspecific {
}
Symbol _ZnwjRKSt9nothrow_t {
}
Symbol ___x_gnu_atexit_thread_o {
}
Symbol __cxa_guard_acquire {
}
Symbol _ZN10__cxxabiv115__forced_unwindD1Ev {
}
Symbol _ZN10__cxxabiv115__forced_unwindD2Ev {
}
Symbol ___x_gnu_eh_abi_o {
}
Symbol _ZdlPv {
}
Symbol _ZN10__cxxabiv119__foreign_exceptionD2Ev {
}
Symbol _ZN10__cxxabiv119__foreign_exceptionD1Ev {
}
Symbol __cxa_pure_virtual {
}
Symbol _ZTVN10__cxxabiv119__foreign_exceptionE {
}
Symbol _ZN10__cxxabiv119__foreign_exceptionD0Ev {
}
Symbol _ZTIN10__cxxabiv119__foreign_exceptionE {
}
Symbol _ZN10__cxxabiv115__forced_unwindD0Ev {
}
Symbol _ZTVN10__cxxabiv117__class_type_infoE {
}
Symbol _ZTVN10__cxxabiv115__forced_unwindE {
}
Symbol _ZTIN10__cxxabiv115__forced_unwindE {
}
Symbol _ZTSN10__cxxabiv119__foreign_exceptionE {
}
Symbol _ZTSN10__cxxabiv115__forced_unwindE {
}
Symbol ___x_gnu_eh_compact_pr_o {
}
Symbol __cxa_free_exception {
}
Symbol _ZNSt15__exception_ptrneERKNS_13exception_ptrES2_ {
}
Symbol __cxa_free_dependent_exception {
}
Symbol _ZNSt15__exception_ptr13exception_ptrC2EMS0_FvvE {
}
Symbol _ZNSt15__exception_ptr13exception_ptraSERKS0_ {
}
Symbol _ZSt17rethrow_exceptionNSt15__exception_ptr13exception_ptrE {
}
Symbol __cxa_allocate_dependent_exception {
}
Symbol _ZNSt15__exception_ptr13exception_ptr9_M_addrefEv {
}
Symbol _ZNSt15__exception_ptr13exception_ptrC2EPv {
}
Symbol _ZNKSt15__exception_ptr13exception_ptr20__cxa_exception_typeEv {
}
Symbol _ZNKSt15__exception_ptr13exception_ptrcvMS0_FvvEEv {
}
Symbol _ZSt9terminatev {
}
Symbol _ZNSt15__exception_ptr13exception_ptrC1ERKS0_ {
}
Symbol _ZNSt15__exception_ptr13exception_ptrC1EMS0_FvvE {
}
Symbol _ZNSt15__exception_ptr13exception_ptrC2Ev {
}
Symbol ___x_gnu_eh_ptr_o {
}
Symbol _ZNSt15__exception_ptr13exception_ptrD1Ev {
}
Symbol _ZNSt15__exception_ptr13exception_ptrC2ERKS0_ {
}
Symbol _Unwind_RaiseException {
}
Symbol _ZNSt15__exception_ptr13exception_ptr4swapERS0_ {
}
Symbol _ZNSt15__exception_ptreqERKNS_13exception_ptrES2_ {
}
Symbol _ZNSt15__exception_ptr13exception_ptrC1Ev {
}
Symbol _ZNSt15__exception_ptr13exception_ptr18_M_safe_bool_dummyEv {
}
Symbol _ZNKSt15__exception_ptr13exception_ptr6_M_getEv {
}
Symbol _ZNKSt15__exception_ptr13exception_ptrntEv {
}
Symbol __cxa_begin_catch {
}
Symbol _ZN10__cxxabiv119__terminate_handlerE {
}
Symbol _ZNSt15__exception_ptr13exception_ptrD2Ev {
}
Symbol _ZN10__cxxabiv111__terminateEPFvvE {
}
Symbol _ZNSt15__exception_ptr13exception_ptr10_M_releaseEv {
}
Symbol __cxa_get_globals {
}
Symbol _ZN10__cxxabiv120__unexpected_handlerE {
}
Symbol _ZNSt15__exception_ptr13exception_ptrC1EPv {
}
Symbol _ZSt17current_exceptionv {
}
Symbol __cxa_call_unexpected {
}
Symbol _Unwind_DeleteException {
}
Symbol __cxa_get_globals_fast {
}
Symbol ___x_gnu_eh_tm_o {
}
Symbol __cxa_tm_cleanup {
}
Symbol fseek {
}
Symbol fopen {
}
Symbol fclose {
}
Symbol ___x_gnu_fiopen_o {
}
Symbol _ZSt7_FiopenPKcNSt5_IosbIiE9_OpenmodeEi {
}
Symbol _ZTSSt14overflow_error {
}
Symbol _ZTISt15underflow_error {
}
Symbol _ZNSt9exceptionD2Ev {
}
Symbol _ZTSSt12out_of_range {
}
Symbol _ZNSt14overflow_errorD0Ev {
}
Symbol _ZNSt14overflow_errorD2Ev {
}
Symbol _ZNSt12out_of_rangeD2Ev {
}
Symbol _ZNSt14overflow_errorD1Ev {
}
Symbol _ZNSt12length_errorD2Ev {
}
Symbol _ZTVSt12out_of_range {
}
Symbol _ZTVSt11range_error {
}
Symbol _ZNSt13runtime_errorD2Ev {
}
Symbol _ZTVSt16invalid_argument {
}
Symbol _ZTISt12out_of_range {
}
Symbol _ZTSSt16invalid_argument {
}
Symbol _ZTVN10__cxxabiv120__si_class_type_infoE {
}
Symbol _ZTVSt11logic_error {
}
Symbol _ZNSt12length_errorD0Ev {
}
Symbol _ZTVSt14overflow_error {
}
Symbol _ZNSt15underflow_errorD1Ev {
}
Symbol _ZNSt11logic_errorD0Ev {
}
Symbol _ZTISt9exception {
}
Symbol _ZTSSt12domain_error {
}
Symbol _ZNSt13runtime_errorD1Ev {
}
Symbol _ZNSt12domain_errorD1Ev {
}
Symbol _ZNSt15underflow_errorD0Ev {
}
Symbol _ZNSt11range_errorD2Ev {
}
Symbol _ZNKSt13runtime_error4whatEv {
}
Symbol _ZTISt13runtime_error {
}
Symbol _ZTVSt12length_error {
}
Symbol _ZNSt16invalid_argumentD2Ev {
}
Symbol _ZNSt12length_errorD1Ev {
}
Symbol _ZTISt11logic_error {
}
Symbol _ZNSt12domain_errorD2Ev {
}
Symbol _ZNSt16invalid_argumentD1Ev {
}
Symbol _ZTSSt15underflow_error {
}
Symbol _ZNSt15underflow_errorD2Ev {
}
Symbol _ZNSt11range_errorD1Ev {
}
Symbol _ZTSSt11range_error {
}
Symbol _ZTISt12domain_error {
}
Symbol _ZTISt14overflow_error {
}
Symbol _ZTISt12length_error {
}
Symbol _ZTSSt13runtime_error {
}
Symbol _ZNSt12out_of_rangeD1Ev {
}
Symbol _ZNSt11range_errorD0Ev {
}
Symbol _ZNSt11logic_errorD2Ev {
}
Symbol _ZTSSt11logic_error {
}
Symbol _ZNSt11logic_errorD1Ev {
}
Symbol _ZTISt11range_error {
}
Symbol _ZNSt12out_of_rangeD0Ev {
}
Symbol _ZNSt16invalid_argumentD0Ev {
}
Symbol _ZTSSt12length_error {
}
Symbol ___x_gnu_gccstdexcept_o {
}
Symbol _ZTVSt15underflow_error {
}
Symbol _ZNSt13runtime_errorD0Ev {
}
Symbol _ZTVSt12domain_error {
}
Symbol _ZNSt12domain_errorD0Ev {
}
Symbol _ZTVSt13runtime_error {
}
Symbol _ZNKSt11logic_error4whatEv {
}
Symbol _ZTISt16invalid_argument {
}
Symbol _ZNKSt9exception4whatEv {
}
Symbol _ZN9__gnu_cxx20recursive_init_errorD1Ev {
}
Symbol _ZTIN9__gnu_cxx20recursive_init_errorE {
}
Symbol _ZTVN9__gnu_cxx20recursive_init_errorE {
}
Symbol _ZN9__gnu_cxx20recursive_init_errorD0Ev {
}
Symbol ___x_gnu_guard_error_o {
}
Symbol _ZTSN9__gnu_cxx20recursive_init_errorE {
}
Symbol _ZN9__gnu_cxx20recursive_init_errorD2Ev {
}
Symbol _ZSt11_Hash_bytesPKvjj {
}
Symbol ___x_gnu_hash_bytes_o {
}
Symbol _ZSt15_Fnv_hash_bytesPKvjj {
}
Symbol _ZSt13resetiosflagsNSt5_IosbIiE9_FmtflagsE {
}
Symbol _ZSt7setbasei {
}
Symbol _ZSt11setiosflagsNSt5_IosbIiE9_FmtflagsE {
}
Symbol ___x_gnu_iomanip_o {
}
Symbol _ZSt12setprecisioni {
}
Symbol _ZSt4setwi {
}
Symbol __cxa_rethrow {
}
Symbol memmove {
}
Symbol _ZSt7_BADOFF {
}
Symbol _ZTISt8ios_base {
}
Symbol _ZNSsC1EPKc {
}
Symbol _ZNKSt12_String_base5_XranEv {
}
Symbol _ZNSt8ios_base8_FindarrEi {
}
Symbol _ZNSt6localeC1Ev {
}
Symbol _ZNSt8ios_baseD1Ev {
}
Symbol _ZNKSt12_String_base5_XlenEv {
}
Symbol _ZNSt8ios_base17register_callbackEPFvNS_5eventERS_iEi {
}
Symbol _ZTSSt5_IosbIiE {
}
Symbol memcpy {
}
Symbol _ZTSSt8ios_base {
}
Symbol _ZNSt13runtime_errorC2ERKSs {
}
Symbol _ZNSt8ios_base5_TidyEv {
}
Symbol _ZTVSt8ios_base {
}
Symbol _ZNSt8ios_base5_InitEv {
}
Symbol _ZNSt8ios_base5imbueERKSt6locale {
}
Symbol __cxa_end_catch {
}
Symbol ___x_gnu_ios_o {
}
Symbol _ZNSt8ios_base7failureD0Ev {
}
Symbol _ZNSt8ios_base5_SyncE {
}
Symbol _ZNSt8ios_base8_CallfnsENS_5eventE {
}
Symbol _ZSt4_Fpz {
}
Symbol _Locksyslock {
}
Symbol _Unlocksyslock {
}
Symbol _ZNSt6localeD1Ev {
}
Symbol _ZNSt8ios_base5clearENSt5_IosbIiE8_IostateEb {
}
Symbol __cxa_throw {
}
Symbol _ZTSNSt8ios_base7failureE {
}
Symbol _ZNSt8ios_base6_IndexE {
}
Symbol _ZNSt8ios_baseD0Ev {
}
Symbol _ZNSt8ios_base7copyfmtERKS_ {
}
Symbol _ZNSt8ios_base7_AddstdEv {
}
Symbol _ZNSt8ios_baseD2Ev {
}
Symbol __cxa_allocate_exception {
}
Symbol _ZTISt5_IosbIiE {
}
Symbol _ZTINSt8ios_base7failureE {
}
Symbol _Znwj {
}
Symbol strlen {
}
Symbol _ZTVNSt8ios_base7failureE {
}
Symbol _ZNSt8ios_base7failureD1Ev {
}
Symbol _ZNSs5_TidyEbj {
}
Symbol _ZTVSt12codecvt_base {
}
Symbol _ZNSt9_FacetptrISt5ctypeIcEE6_PsaveE {
}
Symbol _ZNKSt5ctypeIcE8do_widenEPKcS2_Pc {
}
Symbol _ZTSNSt6locale5facetE {
}
Symbol _ZNKSt12codecvt_base11do_encodingEv {
}
Symbol _ZNSoD1Ev {
}
Symbol _ZNSt15basic_streambufIcSt11char_traitsIcEED0Ev {
}
Symbol _ZNSt15basic_streambufIcSt11char_traitsIcEED1Ev {
}
Symbol _ZNSt15basic_streambufIcSt11char_traitsIcEE9pbackfailEi {
}
Symbol _ZTVNSt6locale5facetE {
}
Symbol _ZTISt15basic_streambufIcSt11char_traitsIcEE {
}
Symbol _ZNSt6locale5facetD0Ev {
}
Symbol _ZTVSo {
}
Symbol ungetc {
}
Symbol _ZNSiD0Ev {
}
Symbol _ZTTSo {
}
Symbol _ZTVSt13basic_filebufIcSt11char_traitsIcEE {
}
Symbol _ZNSt7codecvtIcciED0Ev {
}
Symbol _ZNSt10ctype_baseD1Ev {
}
Symbol _ZNSt6locale5facetD1Ev {
}
Symbol _ZTISt10ctype_base {
}
Symbol _ZNSt15basic_streambufIcSt11char_traitsIcEE9showmanycEv {
}
Symbol _ZNSt10ctype_baseD0Ev {
}
Symbol _ZNKSt5ctypeIcE10do_tolowerEPcPKc {
}
Symbol _ZNSt7codecvtIcciE2idE {
}
Symbol _ZNSt13basic_filebufIcSt11char_traitsIcEE5imbueERKSt6locale {
}
Symbol _ZSt4cerr {
}
Symbol _ZNSt4fposIiE4_StzE {
}
Symbol setvbuf {
}
Symbol _ZNSt13basic_filebufIcSt11char_traitsIcEE7seekoffElNSt5_IosbIiE8_SeekdirENS4_9_OpenmodeE {
}
Symbol _ZTSSt12codecvt_base {
}
Symbol _ZNKSt12codecvt_base13do_max_lengthEv {
}
Symbol tolower {
}
Symbol _ZNSt8_LocinfoD1Ev {
}
Symbol _ZNSt8ios_base4InitC2Ev {
}
Symbol _ZTSSo {
}
Symbol _ZNSt15basic_streambufIcSt11char_traitsIcEE8overflowEi {
}
Symbol _ZTSSt13basic_filebufIcSt11char_traitsIcEE {
}
Symbol _ZNSt13basic_filebufIcSt11char_traitsIcEE4syncEv {
}
Symbol fflush {
}
Symbol _ZTVSt7codecvtIcciE {
}
Symbol _ZNKSt12codecvt_base16do_always_noconvEv {
}
Symbol _ZZNSt13basic_filebufIcSt11char_traitsIcEE5_InitEPFPP7__sFILEvENS2_7_InitflEE7_Stinit {
}
Symbol _ZTVSi {
}
Symbol __stderr {
}
Symbol _ZTISt9basic_iosIcSt11char_traitsIcEE {
}
Symbol _ZTISo {
}
Symbol _ZNSt15basic_streambufIcSt11char_traitsIcEE7seekposESt4fposIiENSt5_IosbIiE9_OpenmodeE {
}
Symbol _ZNKSt5ctypeIcE10do_toupperEPcPKc {
}
Symbol fsetpos {
}
Symbol _ZZNSt13basic_filebufIcSt11char_traitsIcEE5_InitEP7__sFILENS2_7_InitflEE7_Stinit {
}
Symbol _ZNSt9_FacetptrISt7codecvtIcciEE6_PsaveE {
}
Symbol _ZNKSt5ctypeIcE10do_tolowerEc {
}
Symbol _ZNKSt7codecvtIcciE5do_inERiPKcS3_RS3_PcS5_RS5_ {
}
Symbol _ZTISt7codecvtIcciE {
}
Symbol _ZNSt15basic_streambufIcSt11char_traitsIcEE7_UnlockEv {
}
Symbol _ZNSt13basic_filebufIcSt11char_traitsIcEE8overflowEi {
}
Symbol _ZNSt15basic_streambufIcSt11char_traitsIcEE5_LockEv {
}
Symbol _ZNSt5ctypeIcE2idE {
}
Symbol _ZNSt6locale2id7_Id_cntE {
}
Symbol _Getctyptab {
}
Symbol _ZNKSt5ctypeIcE9do_narrowEcc {
}
Symbol _ZNSt15basic_streambufIcSt11char_traitsIcEE5imbueERKSt6locale {
}
Symbol _ZNSt15basic_streambufIcSt11char_traitsIcEE9underflowEv {
}
Symbol __stdin {
}
Symbol _ZTISt12codecvt_base {
}
Symbol _ZNSoD0Ev {
}
Symbol _ZTSSt9basic_iosIcSt11char_traitsIcEE {
}
Symbol _ZNSt6_Mutex7_UnlockEv {
}
Symbol _ZNSt13basic_filebufIcSt11char_traitsIcEE6setbufEPci {
}
Symbol _GLOBAL__I_65535_0__ZNSt8ios_base4Init9_Init_cntE {
}
Symbol _ZTSSt7codecvtIcciE {
}
Symbol _ZNSt8ios_base4InitD2Ev {
}
Symbol _ZTINSt6locale5facetE {
}
Symbol _ZNSt6_Mutex5_LockEv {
}
Symbol _ZNSt5ctypeIcED1Ev {
}
Symbol _ZTVSt10ctype_base {
}
Symbol _ZTSSt10ctype_base {
}
Symbol _ZNSs6appendEjc {
}
Symbol _ZNKSt5ctypeIcE10do_toupperEc {
}
Symbol _ZNSt15basic_streambufIcSt11char_traitsIcEE4syncEv {
}
Symbol _ZNKSt7codecvtIcciE10do_unshiftERiPcS2_RS2_ {
}
Symbol _ZNKSt7codecvtIcciE6do_outERiPKcS3_RS3_PcS5_RS5_ {
}
Symbol _ZNSt8ios_base4InitC1Ev {
}
Symbol _ZNSt15basic_streambufIcSt11char_traitsIcEED2Ev {
}
Symbol _ZNSt15basic_streambufIcSt11char_traitsIcEE6xsgetnEPci {
}
Symbol memset {
}
Symbol _ZTSSt15basic_streambufIcSt11char_traitsIcEE {
}
Symbol _ZNSt12codecvt_baseD0Ev {
}
Symbol _ZTSSi {
}
Symbol _ZNSt5ctypeIcED0Ev {
}
Symbol _ZdaPv {
}
Symbol _ZNSt15basic_streambufIcSt11char_traitsIcEE6xsputnEPKci {
}
Symbol fgetpos {
}
Symbol _ZNSt15basic_streambufIcSt11char_traitsIcEE6setbufEPci {
}
Symbol _ZdlPvS_ {
}
Symbol _ZTISt5ctypeIcE {
}
Symbol _ZNSt9basic_iosIcSt11char_traitsIcEED0Ev {
}
Symbol _ZNSt15basic_streambufIcSt11char_traitsIcEE7seekoffElNSt5_IosbIiE8_SeekdirENS4_9_OpenmodeE {
}
Symbol _ZSt4clog {
}
Symbol _ZGVNSt7codecvtIcciE2idE {
}
Symbol _ZNSt13basic_filebufIcSt11char_traitsIcEED1Ev {
}
Symbol fgetc {
}
Symbol _ZTISt13basic_filebufIcSt11char_traitsIcEE {
}
Symbol _ZNSt8_LocinfoC1EPKc {
}
Symbol _ZSt3cin {
}
Symbol _ZNSiD1Ev {
}
Symbol _ZTVN10__cxxabiv121__vmi_class_type_infoE {
}
Symbol _ZTTSi {
}
Symbol _ZNSt7codecvtIcciED1Ev {
}
Symbol _ZNSt13basic_filebufIcSt11char_traitsIcEE5uflowEv {
}
Symbol _ZNSt8ios_base4InitD1Ev {
}
Symbol _ZTv0_n12_NSiD1Ev {
}
Symbol fputc {
}
Symbol _ZTVSt5ctypeIcE {
}
Symbol _ZTVSt15basic_streambufIcSt11char_traitsIcEE {
}
Symbol _ZNKSt5ctypeIcE9do_narrowEPKcS2_cPc {
}
Symbol ___x_gnu_iostream_o {
}
Symbol _ZNSt6_MutexC1Ev {
}
Symbol fwrite {
}
Symbol __stdout {
}
Symbol _ZTVSt9basic_iosIcSt11char_traitsIcEE {
}
Symbol _ZNSt12codecvt_baseD1Ev {
}
Symbol _ZNKSt5ctypeIcE8do_widenEc {
}
Symbol _ZTv0_n12_NSoD1Ev {
}
Symbol _ZNSt8ios_base4Init9_Init_cntE {
}
Symbol _ZNKSt7codecvtIcciE9do_lengthERKiPKcS4_j {
}
Symbol _ZSt4cout {
}
Symbol _ZNKSt6locale9_GetfacetEj {
}
Symbol _ZNSt13basic_filebufIcSt11char_traitsIcEE9underflowEv {
}
Symbol _PJP_CPP_Copyright {
}
Symbol _ZNSt9basic_iosIcSt11char_traitsIcEED1Ev {
}
Symbol _ZNSt13basic_filebufIcSt11char_traitsIcEE7seekposESt4fposIiENSt5_IosbIiE9_OpenmodeE {
}
Symbol toupper {
}
Symbol _ZTSSt5ctypeIcE {
}
Symbol _ZTv0_n12_NSiD0Ev {
}
Symbol _ZTv0_n12_NSoD0Ev {
}
Symbol _ZNSt6locale5facet9_RegisterEv {
}
Symbol _ZNSt13basic_filebufIcSt11char_traitsIcEE9pbackfailEi {
}
Symbol _ZNSt6_MutexD1Ev {
}
Symbol _ZNSt13basic_filebufIcSt11char_traitsIcEED0Ev {
}
Symbol _ZTISi {
}
Symbol free {
}
Symbol _ZNSt15basic_streambufIcSt11char_traitsIcEE5uflowEv {
}
Symbol _ZNSt15_Num_float_base14is_specializedE {
}
Symbol _ZNSt15_Num_float_base15tinyness_beforeE {
}
Symbol _ZNSt15_Num_float_base5radixE {
}
Symbol _ZNSt14numeric_limitsIdE6digitsE {
}
Symbol _ZNSt9_Num_base15has_denorm_lossE {
}
Symbol _ZNSt14numeric_limitsIlE9is_signedE {
}
Symbol _ZNSt15_Num_float_base9is_iec559E {
}
Symbol _ZNSt15_Num_float_base10has_denormE {
}
Symbol _ZNSt14numeric_limitsIiE6digitsE {
}
Symbol _ZNSt14numeric_limitsIfE14max_exponent10E {
}
Symbol _ZNSt15_Num_float_base10is_boundedE {
}
Symbol _ZNSt9_Num_base9is_signedE {
}
Symbol _ZNSt14numeric_limitsIfE6digitsE {
}
Symbol _ZNSt14numeric_limitsIfE8digits10E {
}
Symbol _ZNSt14numeric_limitsIaE9is_signedE {
}
Symbol _ZNSt9_Num_base15tinyness_beforeE {
}
Symbol _ZNSt14numeric_limitsIbE8digits10E {
}
Symbol _ZNSt9_Num_base9is_iec559E {
}
Symbol _ZNSt14numeric_limitsIiE9is_signedE {
}
Symbol _ZNSt14numeric_limitsIcE8digits10E {
}
Symbol _ZNSt14numeric_limitsIjE8digits10E {
}
Symbol _ZNSt14numeric_limitsIhE6digitsE {
}
Symbol _ZNSt14numeric_limitsItE9is_signedE {
}
Symbol ___x_gnu_limits_o {
}
Symbol _ZNSt9_Num_base11round_styleE {
}
Symbol _ZNSt13_Num_int_base10is_boundedE {
}
Symbol _ZNSt13_Num_int_base14is_specializedE {
}
Symbol _ZNSt14numeric_limitsIfE12max_exponentE {
}
Symbol _ZNSt14numeric_limitsIyE6digitsE {
}
Symbol _ZNSt14numeric_limitsIeE14max_exponent10E {
}
Symbol _ZNSt13_Num_int_base9is_moduloE {
}
Symbol _ZNSt9_Num_base17has_signaling_NaNE {
}
Symbol _ZNSt14numeric_limitsIfE12min_exponentE {
}
Symbol _ZNSt14numeric_limitsIeE6digitsE {
}
Symbol _ZNSt14numeric_limitsIbE9is_signedE {
}
Symbol _ZNSt14numeric_limitsIxE6digitsE {
}
Symbol _ZNSt14numeric_limitsIjE6digitsE {
}
Symbol _ZNSt14numeric_limitsIbE6digitsE {
}
Symbol _ZNSt9_Num_base12max_exponentE {
}
Symbol _ZNSt9_Num_base12has_infinityE {
}
Symbol _ZNSt9_Num_base5radixE {
}
Symbol _ZNSt14numeric_limitsIlE6digitsE {
}
Symbol _ZNSt9_Num_base10is_boundedE {
}
Symbol _ZNSt9_Num_base13has_quiet_NaNE {
}
Symbol _ZNSt14numeric_limitsIsE9is_signedE {
}
Symbol _ZNSt9_Num_base5trapsE {
}
Symbol _ZNSt14numeric_limitsIlE8digits10E {
}
Symbol _ZNSt14numeric_limitsIdE12max_exponentE {
}
Symbol _ZNSt14numeric_limitsIfE14min_exponent10E {
}
Symbol _ZNSt15_Num_float_base9is_signedE {
}
Symbol _ZNSt15_Num_float_base15has_denorm_lossE {
}
Symbol _ZNSt9_Num_base12min_exponentE {
}
Symbol _ZNSt14numeric_limitsIxE8digits10E {
}
Symbol _ZNSt15_Num_float_base10is_integerE {
}
Symbol _ZNSt14numeric_limitsImE8digits10E {
}
Symbol _ZNSt14numeric_limitsIxE9is_signedE {
}
Symbol _ZNSt15_Num_float_base11round_styleE {
}
Symbol _ZNSt14numeric_limitsIjE9is_signedE {
}
Symbol _ZNSt14numeric_limitsIhE8digits10E {
}
Symbol _ZNSt14numeric_limitsIeE12min_exponentE {
}
Symbol _ZNSt9_Num_base8digits10E {
}
Symbol _ZNSt15_Num_float_base17has_signaling_NaNE {
}
Symbol _ZNSt13_Num_int_base8is_exactE {
}
Symbol _ZNSt9_Num_base6digitsE {
}
Symbol _ZNSt9_Num_base14min_exponent10E {
}
Symbol _ZNSt14numeric_limitsImE9is_signedE {
}
Symbol _ZNSt14numeric_limitsIdE14min_exponent10E {
}
Symbol _ZNSt14numeric_limitsItE6digitsE {
}
Symbol _ZNSt14numeric_limitsIeE8digits10E {
}
Symbol _ZNSt14numeric_limitsIyE9is_signedE {
}
Symbol _ZNSt9_Num_base9is_moduloE {
}
Symbol _ZNSt9_Num_base14is_specializedE {
}
Symbol _ZNSt14numeric_limitsIaE6digitsE {
}
Symbol _ZNSt14numeric_limitsIeE14min_exponent10E {
}
Symbol _ZNSt15_Num_float_base5trapsE {
}
Symbol _ZNSt15_Num_float_base8is_exactE {
}
Symbol _ZNSt9_Num_base14max_exponent10E {
}
Symbol _ZNSt14numeric_limitsIdE12min_exponentE {
}
Symbol _ZNSt14numeric_limitsIcE9is_signedE {
}
Symbol _ZNSt14numeric_limitsIdE8digits10E {
}
Symbol _ZNSt9_Num_base10is_integerE {
}
Symbol _ZNSt14numeric_limitsIhE9is_signedE {
}
Symbol _ZNSt14numeric_limitsIdE14max_exponent10E {
}
Symbol _ZNSt15_Num_float_base13has_quiet_NaNE {
}
Symbol _ZNSt15_Num_float_base9is_moduloE {
}
Symbol _ZNSt14numeric_limitsIsE8digits10E {
}
Symbol _ZNSt15_Num_float_base12has_infinityE {
}
Symbol _ZNSt14numeric_limitsIaE8digits10E {
}
Symbol _ZNSt14numeric_limitsIyE8digits10E {
}
Symbol _ZNSt14numeric_limitsIiE8digits10E {
}
Symbol _ZNSt13_Num_int_base5radixE {
}
Symbol _ZNSt14numeric_limitsIbE9is_moduloE {
}
Symbol _ZNSt13_Num_int_base10is_integerE {
}
Symbol _ZNSt14numeric_limitsImE6digitsE {
}
Symbol _ZNSt9_Num_base8is_exactE {
}
Symbol _ZNSt14numeric_limitsIcE6digitsE {
}
Symbol _ZNSt14numeric_limitsItE8digits10E {
}
Symbol _ZNSt9_Num_base10has_denormE {
}
Symbol _ZNSt14numeric_limitsIeE12max_exponentE {
}
Symbol _ZNSt14numeric_limitsIsE6digitsE {
}
Symbol _ZNKSt7num_putIcSt19ostreambuf_iteratorIcSt11char_traitsIcEEE6do_putES3_RSt8ios_basecm {
}
Symbol _ZNSt6localeC1ERKS_PKci {
}
Symbol _Znaj {
}
Symbol _ZNSt6localeC1EPKci {
}
Symbol _ZNSt8numpunctIcEC1Ej {
}
Symbol _ZNSt6localeC1ERKS_ {
}
Symbol _ZNKSt7num_putIcSt19ostreambuf_iteratorIcSt11char_traitsIcEEE6do_putES3_RSt8ios_basecPKv {
}
Symbol _ZNKSt7num_getIcSt19istreambuf_iteratorIcSt11char_traitsIcEEE6do_getES3_S3_RSt8ios_baseRNSt5_IosbIiE8_IostateERPv {
}
Symbol _ZNKSt7num_getIcSt19istreambuf_iteratorIcSt11char_traitsIcEEE6do_getES3_S3_RSt8ios_baseRNSt5_IosbIiE8_IostateERy {
}
Symbol _ZNSt9_FacetptrISt7num_putIcSt19ostreambuf_iteratorIcSt11char_traitsIcEEEE6_PsaveE {
}
Symbol _ZNSt6locale7_Locimp8_ClocptrE {
}
Symbol __locale {
}
Symbol _ZNSt8_LocinfoC2EiPKc {
}
Symbol _ZNKSt7num_putIcSt19ostreambuf_iteratorIcSt11char_traitsIcEEE11_PutgroupedES3_PKcjc {
}
Symbol __errno {
}
Symbol _ZNSt7num_getIcSt19istreambuf_iteratorIcSt11char_traitsIcEEED0Ev {
}
Symbol _ZNSt6locale5facet7_DecrefEv {
}
Symbol _ZNSt6locale7_AddfacEPNS_5facetEjj {
}
Symbol ___x_gnu_locale_o {
}
Symbol _ZNKSt7num_putIcSt19ostreambuf_iteratorIcSt11char_traitsIcEEE5_FputES3_RSt8ios_basecPKcjjjj {
}
Symbol _ZNSt6locale7_Locimp7_AddfacEPNS_5facetEj {
}
Symbol _ZNSt7num_putIcSt19ostreambuf_iteratorIcSt11char_traitsIcEEED1Ev {
}
Symbol _ZTVSt7num_putIcSt19ostreambuf_iteratorIcSt11char_traitsIcEEE {
}
Symbol _Setgloballocale {
}
Symbol _ZNSt6locale7_LocimpC1ERKS0_ {
}
Symbol _Stod {
}
Symbol malloc {
}
Symbol _ZNSs6assignERKSsjj {
}
Symbol _ZNSt6locale7_LocimpC1Eb {
}
Symbol _ZGVNSt7num_getIcSt19istreambuf_iteratorIcSt11char_traitsIcEEE2idE {
}
Symbol _ZNKSt7num_getIcSt19istreambuf_iteratorIcSt11char_traitsIcEEE6do_getES3_S3_RSt8ios_baseRNSt5_IosbIiE8_IostateERm {
}
Symbol strtoul {
}
Symbol _ZNKSt7num_putIcSt19ostreambuf_iteratorIcSt11char_traitsIcEEE6do_putES3_RSt8ios_basecb {
}
Symbol _ZNSt8numpunctIcED0Ev {
}
Symbol _ZNSt7num_putIcSt19ostreambuf_iteratorIcSt11char_traitsIcEEE2idE {
}
Symbol _ZNKSt7num_getIcSt19istreambuf_iteratorIcSt11char_traitsIcEEE8_GetffldEPcRS3_S6_RKSt6locale {
}
Symbol _ZNKSt7num_getIcSt19istreambuf_iteratorIcSt11char_traitsIcEEE6do_getES3_S3_RSt8ios_baseRNSt5_IosbIiE8_IostateERf {
}
Symbol _ZNKSt7num_getIcSt19istreambuf_iteratorIcSt11char_traitsIcEEE6do_getES3_S3_RSt8ios_baseRNSt5_IosbIiE8_IostateERb {
}
Symbol _ZSt9use_facetISt8numpunctIcEERKT_RKSt6locale {
}
Symbol _ZTSSt8numpunctIcE {
}
Symbol _ZNSt8numpunctIcE5_TidyEv {
}
Symbol _ZNSt7num_putIcSt19ostreambuf_iteratorIcSt11char_traitsIcEEED0Ev {
}
Symbol strtol {
}
Symbol _ZNKSt8numpunctIcE12do_falsenameEv {
}
Symbol _ZTSSt7num_putIcSt19ostreambuf_iteratorIcSt11char_traitsIcEEE {
}
Symbol _ZNSt6locale7_Locimp9_MakexlocERKSt8_LocinfoiPS0_PKS_ {
}
Symbol _ZNSt8_LocinfoC1EiPKc {
}
Symbol _ZNKSt7num_getIcSt19istreambuf_iteratorIcSt11char_traitsIcEEE6do_getES3_S3_RSt8ios_baseRNSt5_IosbIiE8_IostateERt {
}
Symbol _ZNSt19istreambuf_iteratorIcSt11char_traitsIcEE5_PeekEv {
}
Symbol _ZNKSt8numpunctIcE16do_thousands_sepEv {
}
Symbol _Getgloballocale {
}
Symbol _ZNSt8_Locinfo8_AddcatsEiPKc {
}
Symbol _ZNSt8numpunctIcE2idE {
}
Symbol memchr {
}
Symbol _ZNSt6localeC1ERKS_S1_i {
}
Symbol _ZNKSt7num_putIcSt19ostreambuf_iteratorIcSt11char_traitsIcEEE6do_putES3_RSt8ios_basecd {
}
Symbol _ZNKSt7num_putIcSt19ostreambuf_iteratorIcSt11char_traitsIcEEE6do_putES3_RSt8ios_basece {
}
Symbol _ZNSt6locale7_LocimpC2ERKS0_ {
}
Symbol _ZNKSt8numpunctIcE11do_truenameEv {
}
Symbol _ZNSt8numpunctIcED1Ev {
}
Symbol _ZNSt6locale5_InitEv {
}
Symbol realloc {
}
Symbol _ZGVNSt7num_putIcSt19ostreambuf_iteratorIcSt11char_traitsIcEEE2idE {
}
Symbol _ZTVSt8numpunctIcE {
}
Symbol _ZNKSt8numpunctIcE11do_groupingEv {
}
Symbol _ZNSs6appendERKSsjj {
}
Symbol memcmp {
}
Symbol _ZNKSt7num_getIcSt19istreambuf_iteratorIcSt11char_traitsIcEEE6do_getES3_S3_RSt8ios_baseRNSt5_IosbIiE8_IostateERe {
}
Symbol _ZNSt7num_getIcSt19istreambuf_iteratorIcSt11char_traitsIcEEED1Ev {
}
Symbol _GLOBAL__I_65535_0__ZNSt6localeC2ERKS_S1_i {
}
Symbol _ZNSt6localeC2EPKci {
}
Symbol _ZNKSt7num_getIcSt19istreambuf_iteratorIcSt11char_traitsIcEEE6do_getES3_S3_RSt8ios_baseRNSt5_IosbIiE8_IostateERl {
}
Symbol _ZNSt19istreambuf_iteratorIcSt11char_traitsIcEE4_IncEv {
}
Symbol _Stoll {
}
Symbol _ZNKSt7num_getIcSt19istreambuf_iteratorIcSt11char_traitsIcEEE8_GetifldEPcRS3_S6_NSt5_IosbIiE9_FmtflagsERKSt6locale {
}
Symbol _ZTISt7num_putIcSt19ostreambuf_iteratorIcSt11char_traitsIcEEE {
}
Symbol _ZNKSt8numpunctIcE16do_decimal_pointEv {
}
Symbol _ZNKSt7num_putIcSt19ostreambuf_iteratorIcSt11char_traitsIcEEE6do_putES3_RSt8ios_basecy {
}
Symbol _ZNKSt19istreambuf_iteratorIcSt11char_traitsIcEE5equalERKS2_ {
}
Symbol _ZSt9_Nomemoryv {
}
Symbol _ZNKSt7num_putIcSt19ostreambuf_iteratorIcSt11char_traitsIcEEE5_IputES3_RSt8ios_basecPcj {
}
Symbol sprintf {
}
Symbol strcspn {
}
Symbol _ZNKSt7num_getIcSt19istreambuf_iteratorIcSt11char_traitsIcEEE6do_getES3_S3_RSt8ios_baseRNSt5_IosbIiE8_IostateERx {
}
Symbol setlocale {
}
Symbol _ZTSSt7num_getIcSt19istreambuf_iteratorIcSt11char_traitsIcEEE {
}
Symbol _ZTVNSt6locale7_LocimpE {
}
Symbol _ZTISt7num_getIcSt19istreambuf_iteratorIcSt11char_traitsIcEEE {
}
Symbol _ZNSt6localeC2ERKS_S1_i {
}
Symbol _ZNKSt7num_putIcSt19ostreambuf_iteratorIcSt11char_traitsIcEEE6do_putES3_RSt8ios_basecx {
}
Symbol _Stold {
}
Symbol _ZNKSt7num_putIcSt19ostreambuf_iteratorIcSt11char_traitsIcEEE6do_putES3_RSt8ios_basecl {
}
Symbol _Stof {
}
Symbol _ZGVNSt8numpunctIcE2idE {
}
Symbol _ZNSt6locale7_Locimp8_MakelocERKSt8_LocinfoiPS0_PKS_ {
}
Symbol _ZNSt9_FacetptrISt8numpunctIcEE6_PsaveE {
}
Symbol _ZTVSt7num_getIcSt19istreambuf_iteratorIcSt11char_traitsIcEEE {
}
Symbol _Stoull {
}
Symbol _ZNSt7num_getIcSt19istreambuf_iteratorIcSt11char_traitsIcEEE2idE {
}
Symbol _ZNSs6insertEjjc {
}
Symbol _ZNSt6locale6globalERKS_ {
}
Symbol _ZNSt6localeC2ERKS_PKci {
}
Symbol _ZNKSt7num_getIcSt19istreambuf_iteratorIcSt11char_traitsIcEEE6do_getES3_S3_RSt8ios_baseRNSt5_IosbIiE8_IostateERd {
}
Symbol _ZNKSt7num_getIcSt19istreambuf_iteratorIcSt11char_traitsIcEEE6do_getES3_S3_RSt8ios_baseRNSt5_IosbIiE8_IostateERj {
}
Symbol _ZTISt8numpunctIcE {
}
Symbol _ZNSt9_FacetptrISt7num_getIcSt19istreambuf_iteratorIcSt11char_traitsIcEEEE6_PsaveE {
}
Symbol _ZNSt13runtime_errorC1ERKSs {
}
Symbol _ZNKSt6localeeqERKS_ {
}
Symbol _GLOBAL__I_65535_0__Fac_tidy {
}
Symbol _ZTINSt6locale7_LocimpE {
}
Symbol _Atexit {
}
Symbol _ZNSt6locale7_LocimpD0Ev {
}
Symbol _ZNSt6locale7classicEv {
}
Symbol _ZNSt6locale7_LocimpD1Ev {
}
Symbol _ZNSt6locale5emptyEv {
}
Symbol _ZNSs5_CopyEjj {
}
Symbol _ZNSt8_LocinfoD2Ev {
}
Symbol _ZNSt8_LocinfoC2EPKc {
}
Symbol _Fac_tidy {
}
Symbol _ZTSNSt6locale7_LocimpE {
}
Symbol _ZNSt6locale7_LocimpD2Ev {
}
Symbol _Deletegloballocale {
}
Symbol _ZNSt6localeC2Ev {
}
Symbol _ZNSt5ctypeIcE10table_sizeE {
}
Symbol ___x_gnu_locale0_o {
}
Symbol _ZNSt6locale7_LocimpC2Eb {
}
Symbol ___x_gnu_nested_exception_o {
}
Symbol ___x_gnu_string_o {
}
Symbol _ZNSt12strstreambuf7seekposESt4fposIiENSt5_IosbIiE9_OpenmodeE {
}
Symbol _ZTCSd0_Si {
}
Symbol _ZTVSd {
}
Symbol _ZTVSt10ostrstream {
}
Symbol _ZTv0_n12_NSt10istrstreamD0Ev {
}
Symbol _ZTVSt12strstreambuf {
}
Symbol _ZTVSt10istrstream {
}
Symbol _ZTv0_n12_NSt10istrstreamD1Ev {
}
Symbol _ZTISt10ostrstream {
}
Symbol _ZNSt10ostrstreamD1Ev {
}
Symbol _ZThn8_NSt9strstreamD1Ev {
}
Symbol _ZTVSt9strstream {
}
Symbol _ZTISd {
}
Symbol _ZThn8_NSt9strstreamD0Ev {
}
Symbol _ZNSdD1Ev {
}
Symbol _ZTSSt12strstreambuf {
}
Symbol _ZNSt12strstreambuf5_InitEiPcS0_i {
}
Symbol _ZNSt12strstreambufD2Ev {
}
Symbol _ZNSt12strstreambuf5_TidyEv {
}
Symbol _ZTTSt9strstream {
}
Symbol _ZNSt10ostrstreamC1EPciNSt5_IosbIiE9_OpenmodeE {
}
Symbol _ZThn8_NSdD0Ev {
}
Symbol _ZNSt9strstreamD1Ev {
}
Symbol _ZNSt12strstreambuf6freezeEb {
}
Symbol _ZTISt10istrstream {
}
Symbol _ZTTSt10istrstream {
}
Symbol _ZNSt10istrstreamD0Ev {
}
Symbol _ZNSt9basic_iosIcSt11char_traitsIcEE4initEPSt15basic_streambufIcS1_Eb {
}
Symbol _ZNSt10istrstreamD2Ev {
}
Symbol _ZNSt10ostrstreamD2Ev {
}
Symbol _ZNSt9strstreamD0Ev {
}
Symbol _ZNSdD2Ev {
}
Symbol _ZNSt10istrstreamD1Ev {
}
Symbol _ZTv0_n12_NSt10ostrstreamD0Ev {
}
Symbol _ZTCSt9strstream0_Si {
}
Symbol _ZNSt12strstreambuf8overflowEi {
}
Symbol _ZTCSd8_So {
}
Symbol _ZTv0_n12_NSdD1Ev {
}
Symbol _ZTTSt10ostrstream {
}
Symbol _ZTSSd {
}
Symbol _ZTCSt9strstream8_So {
}
Symbol _ZTv0_n12_NSt9strstreamD0Ev {
}
Symbol _ZTv0_n12_NSt9strstreamD1Ev {
}
Symbol _ZTCSt9strstream0_Sd {
}
Symbol _ZNSt12strstreambufD0Ev {
}
Symbol _ZTSSt9strstream {
}
Symbol _ZTCSt10istrstream0_Si {
}
Symbol _ZTTSd {
}
Symbol _ZTISt9strstream {
}
Symbol _ZTISt12strstreambuf {
}
Symbol _ZTv0_n12_NSdD0Ev {
}
Symbol _ZNSt10ostrstreamD0Ev {
}
Symbol _ZNSt9strstreamC1EPciNSt5_IosbIiE9_OpenmodeE {
}
Symbol _ZNSt9strstreamC2EPciNSt5_IosbIiE9_OpenmodeE {
}
Symbol _ZTSSt10ostrstream {
}
Symbol _ZNSt12strstreambuf7seekoffElNSt5_IosbIiE8_SeekdirENS1_9_OpenmodeE {
}
Symbol _ZNSt10ostrstreamC2EPciNSt5_IosbIiE9_OpenmodeE {
}
Symbol _ZTCSt10ostrstream0_So {
}
Symbol _ZNSt12strstreambuf9pbackfailEi {
}
Symbol _ZTv0_n12_NSt10ostrstreamD1Ev {
}
Symbol _ZTSSt10istrstream {
}
Symbol _ZNSt12strstreambufD1Ev {
}
Symbol _ZNSdD0Ev {
}
Symbol _ZNSt12strstreambuf9underflowEv {
}
Symbol _ZThn8_NSdD1Ev {
}
Symbol _ZNSt9strstreamD2Ev {
}
Symbol ___x_gnu_strstrea_o {
}
Symbol ___x_gnu_wiostrea_o {
}
Symbol ___x_gnu_wlocale_o {
}
Symbol ___x_gnu_xatexit_o {
}
Symbol ___x_gnu_xdtest_o {
}
Symbol _Dtest {
}
Symbol _FDtest {
}
Symbol ___x_gnu_xfdtest_o {
}
Symbol ___x_gnu_xfpostox_o {
}
Symbol _FRteps {
}
Symbol _FXbig {
}
Symbol ___x_gnu_xfvalues_o {
}
Symbol _FEps {
}
Symbol _FInf {
}
Symbol _FDenorm {
}
Symbol _FSnan {
}
Symbol _FNan {
}
Symbol _FZero {
}
Symbol _ZNKSt7_MpunctIcE13do_neg_formatEv {
}
Symbol _ZNSt8messagesIcE2idE {
}
Symbol _ZNKSt9money_putIcSt19ostreambuf_iteratorIcSt11char_traitsIcEEE8_PutmfldES3_bRSt8ios_basecbSs {
}
Symbol _ZTSSt10moneypunctIcLb1EE {
}
Symbol _ZSt9use_facetISt10moneypunctIcLb0EEERKT_RKSt6locale {
}
Symbol _ZNSt9_FacetptrISt9money_putIcSt19ostreambuf_iteratorIcSt11char_traitsIcEEEE6_PsaveE {
}
Symbol _ZNSt9_FacetptrISt10moneypunctIcLb0EEE6_PsaveE {
}
Symbol _ZTVSt10moneypunctIcLb1EE {
}
Symbol _ZTISt8time_putIcSt19ostreambuf_iteratorIcSt11char_traitsIcEEE {
}
Symbol _ZTISt8bad_cast {
}
Symbol _ZGVNSt8messagesIcE2idE {
}
Symbol _ZNKSt9money_putIcSt19ostreambuf_iteratorIcSt11char_traitsIcEEE6do_putES3_bRSt8ios_basece {
}
Symbol _ZTVSt8messagesIcE {
}
Symbol _ZNSt9money_putIcSt19ostreambuf_iteratorIcSt11char_traitsIcEEED0Ev {
}
Symbol _ZTSSt8time_putIcSt19ostreambuf_iteratorIcSt11char_traitsIcEEE {
}
Symbol _ZGVNSt9money_putIcSt19ostreambuf_iteratorIcSt11char_traitsIcEEE2idE {
}
Symbol _ZNKSt8time_getIcSt19istreambuf_iteratorIcSt11char_traitsIcEEE11do_get_timeES3_S3_RSt8ios_baseRNSt5_IosbIiE8_IostateEP2tm {
}
Symbol _ZNSt10money_baseD0Ev {
}
Symbol _ZNSt8messagesIcED1Ev {
}
Symbol _ZNSt7collateIcED0Ev {
}
Symbol _ZNSt10money_baseD1Ev {
}
Symbol _ZNKSt8time_getIcSt19istreambuf_iteratorIcSt11char_traitsIcEEE11do_get_dateES3_S3_RSt8ios_baseRNSt5_IosbIiE8_IostateEP2tm {
}
Symbol _ZNKSt7collateIcE10do_compareEPKcS2_S2_S2_ {
}
Symbol _ZTISt7_MpunctIcE {
}
Symbol _ZNKSt7collateIcE12do_transformEPKcS2_ {
}
Symbol _ZNSt7_MpunctIcED1Ev {
}
Symbol _ZNSt10moneypunctIcLb0EE2idE {
}
Symbol _ZTISt10money_base {
}
Symbol _ZTVSt9time_base {
}
Symbol _ZNSt9money_getIcSt19istreambuf_iteratorIcSt11char_traitsIcEEE2idE {
}
Symbol _ZTVSt7_MpunctIcE {
}
Symbol _ZTSSt9money_getIcSt19istreambuf_iteratorIcSt11char_traitsIcEEE {
}
Symbol _ZTVSt8time_putIcSt19ostreambuf_iteratorIcSt11char_traitsIcEEE {
}
Symbol _ZNSt19ostreambuf_iteratorIcSt11char_traitsIcEEaSEc {
}
Symbol _ZNSt9_FacetptrISt8time_putIcSt19ostreambuf_iteratorIcSt11char_traitsIcEEEE6_PsaveE {
}
Symbol _ZNSt8time_getIcSt19istreambuf_iteratorIcSt11char_traitsIcEEEC1Ej {
}
Symbol _ZNSt8time_getIcSt19istreambuf_iteratorIcSt11char_traitsIcEEED1Ev {
}
Symbol _ZNSt7_MpunctIcED0Ev {
}
Symbol _ZTSSt8messagesIcE {
}
Symbol _ZNSt9money_getIcSt19istreambuf_iteratorIcSt11char_traitsIcEEED0Ev {
}
Symbol _ZNSt7_MpunctIcEC2Ejb {
}
Symbol _ZNKSt8messagesIcE8do_closeEi {
}
Symbol _ZTSSt7collateIcE {
}
Symbol _ZNSt13messages_baseD1Ev {
}
Symbol _ZGVNSt7collateIcE2idE {
}
Symbol _ZNSt8bad_castD1Ev {
}
Symbol _ZTSSt10money_base {
}
Symbol _ZNSt8time_putIcSt19ostreambuf_iteratorIcSt11char_traitsIcEEED1Ev {
}
Symbol _ZNKSt9money_getIcSt19istreambuf_iteratorIcSt11char_traitsIcEEE6do_getES3_S3_bRSt8ios_baseRNSt5_IosbIiE8_IostateERe {
}
Symbol _ZNKSt9money_getIcSt19istreambuf_iteratorIcSt11char_traitsIcEEE6do_getES3_S3_bRSt8ios_baseRNSt5_IosbIiE8_IostateERSs {
}
Symbol _ZNSt7_MpunctIcE5_InitERKSt8_Locinfo {
}
Symbol _ZTISt9time_base {
}
Symbol _ZTSSt9time_base {
}
Symbol _ZTISt10moneypunctIcLb1EE {
}
Symbol _ZNSt10moneypunctIcLb1EED0Ev {
}
Symbol _ZTVSt9money_putIcSt19ostreambuf_iteratorIcSt11char_traitsIcEEE {
}
Symbol _ZNSt10moneypunctIcLb1EE7_GetcatEPPKNSt6locale5facetE {
}
Symbol _ZTISt8time_getIcSt19istreambuf_iteratorIcSt11char_traitsIcEEE {
}
Symbol _ZNSt9time_baseD0Ev {
}
Symbol _ZNSt10moneypunctIcLb0EE7_GetcatEPPKNSt6locale5facetE {
}
Symbol _ZNKSt7_MpunctIcE16do_decimal_pointEv {
}
Symbol _ZGVNSt9money_getIcSt19istreambuf_iteratorIcSt11char_traitsIcEEE2idE {
}
Symbol _ZNSt9time_baseD1Ev {
}
Symbol _ZTVSt7collateIcE {
}
Symbol _ZGVNSt8time_putIcSt19ostreambuf_iteratorIcSt11char_traitsIcEEE2idE {
}
Symbol _ZGVNSt10moneypunctIcLb1EE2idE {
}
Symbol _ZNKSt7_MpunctIcE16do_negative_signEv {
}
Symbol _ZGVNSt10moneypunctIcLb0EE2idE {
}
Symbol _ZNKSt8time_getIcSt19istreambuf_iteratorIcSt11char_traitsIcEEE11do_get_yearES3_S3_RSt8ios_baseRNSt5_IosbIiE8_IostateEP2tm {
}
Symbol _ZNSt8time_getIcSt19istreambuf_iteratorIcSt11char_traitsIcEEED0Ev {
}
Symbol _ZTSSt9money_putIcSt19ostreambuf_iteratorIcSt11char_traitsIcEEE {
}
Symbol _ZNSt10moneypunctIcLb1EE2idE {
}
Symbol _ZNSt9_FacetptrISt8messagesIcEE6_PsaveE {
}
Symbol _ZNKSt8time_getIcSt19istreambuf_iteratorIcSt11char_traitsIcEEE14do_get_weekdayES3_S3_RSt8ios_baseRNSt5_IosbIiE8_IostateEP2tm {
}
Symbol _ZTISt8messagesIcE {
}
Symbol _ZTSSt7_MpunctIcE {
}
Symbol _ZNSt10moneypunctIcLb1EED1Ev {
}
Symbol _ZNSt9_FacetptrISt7collateIcEE6_PsaveE {
}
Symbol _ZTVSt8time_getIcSt19istreambuf_iteratorIcSt11char_traitsIcEEE {
}
Symbol _ZNSt7collateIcED1Ev {
}
Symbol _ZNSt9money_getIcSt19istreambuf_iteratorIcSt11char_traitsIcEEED1Ev {
}
Symbol _ZNKSt8messagesIcE6do_getEiiiRKSs {
}
Symbol _ZNSt8messagesIcED0Ev {
}
Symbol _ZTVSt8bad_cast {
}
Symbol _ZNKSt7_MpunctIcE11do_groupingEv {
}
Symbol _ZNSt10moneypunctIcLb0EED1Ev {
}
Symbol _ZTVSt9money_getIcSt19istreambuf_iteratorIcSt11char_traitsIcEEE {
}
Symbol _ZSt9use_facetISt10moneypunctIcLb1EEERKT_RKSt6locale {
}
Symbol _ZNSt9money_putIcSt19ostreambuf_iteratorIcSt11char_traitsIcEEED1Ev {
}
Symbol _ZNKSt9money_putIcSt19ostreambuf_iteratorIcSt11char_traitsIcEEE6do_putES3_bRSt8ios_basecRKSs {
}
Symbol _ZTVSt10moneypunctIcLb0EE {
}
Symbol _ZNKSt9money_getIcSt19istreambuf_iteratorIcSt11char_traitsIcEEE8_GetmfldERS3_S5_bRSt8ios_base {
}
Symbol _ZNSt13messages_baseD0Ev {
}
Symbol _ZTSSt13messages_base {
}
Symbol _ZNSt9_FacetptrISt8time_getIcSt19istreambuf_iteratorIcSt11char_traitsIcEEEE6_PsaveE {
}
Symbol _ZNKSt7_MpunctIcE16do_thousands_sepEv {
}
Symbol _ZNKSt8time_getIcSt19istreambuf_iteratorIcSt11char_traitsIcEEE7_GetintERS3_S5_iiRi {
}
Symbol _ZTVSt10money_base {
}
Symbol _ZTISt9money_putIcSt19ostreambuf_iteratorIcSt11char_traitsIcEEE {
}
Symbol _ZNKSt7collateIcE7do_hashEPKcS2_ {
}
Symbol _ZNSt8time_putIcSt19ostreambuf_iteratorIcSt11char_traitsIcEEE2idE {
}
Symbol _ZNSt9money_putIcSt19ostreambuf_iteratorIcSt11char_traitsIcEEE2idE {
}
Symbol strftime {
}
Symbol _ZNKSt8time_putIcSt19ostreambuf_iteratorIcSt11char_traitsIcEEE6do_putES3_RSt8ios_basecPK2tmcc {
}
Symbol _ZNSt8time_putIcSt19ostreambuf_iteratorIcSt11char_traitsIcEEED0Ev {
}
Symbol ___x_gnu_xlocale_o {
}
Symbol _ZNKSt8time_getIcSt19istreambuf_iteratorIcSt11char_traitsIcEEE13do_date_orderEv {
}
Symbol _ZTISt7collateIcE {
}
Symbol _ZNKSt8messagesIcE7do_openERKSsRKSt6locale {
}
Symbol _ZNSt8time_getIcSt19istreambuf_iteratorIcSt11char_traitsIcEEE2idE {
}
Symbol _ZNSt7collateIcE2idE {
}
Symbol _ZNSs5_GrowEjb {
}
Symbol _ZTISt10moneypunctIcLb0EE {
}
Symbol _ZNSt7_MpunctIcE5_TidyEv {
}
Symbol _ZNSt10moneypunctIcLb0EED0Ev {
}
Symbol _ZNKSt7_MpunctIcE14do_frac_digitsEv {
}
Symbol _ZNSs5eraseEjj {
}
Symbol _ZNKSt7_MpunctIcE14do_curr_symbolEv {
}
Symbol _ZTSSt8time_getIcSt19istreambuf_iteratorIcSt11char_traitsIcEEE {
}
Symbol _ZNSt9_FacetptrISt9money_getIcSt19istreambuf_iteratorIcSt11char_traitsIcEEEE6_PsaveE {
}
Symbol _ZNKSt7_MpunctIcE13do_pos_formatEv {
}
Symbol _ZGVNSt8time_getIcSt19istreambuf_iteratorIcSt11char_traitsIcEEE2idE {
}
Symbol _ZNKSt8time_getIcSt19istreambuf_iteratorIcSt11char_traitsIcEEE16do_get_monthnameES3_S3_RSt8ios_baseRNSt5_IosbIiE8_IostateEP2tm {
}
Symbol _ZNKSt7_MpunctIcE16do_positive_signEv {
}
Symbol _ZTISt13messages_base {
}
Symbol _GLOBAL__I_65535_0__ZNSt6locale7_Locimp9_MakexlocERKSt8_LocinfoiPS0_PKS_ {
}
Symbol _ZTSSt10moneypunctIcLb0EE {
}
Symbol _ZTVSt13messages_base {
}
Symbol _ZNSt9_FacetptrISt10moneypunctIcLb1EEE6_PsaveE {
}
Symbol _ZTISt9money_getIcSt19istreambuf_iteratorIcSt11char_traitsIcEEE {
}
Symbol islower {
}
Symbol ispunct {
}
Symbol isspace {
}
Symbol ___x_gnu_xlocinfo_o {
}
Symbol isxdigit {
}
Symbol calloc {
}
Symbol isupper {
}
Symbol isalnum {
}
Symbol isdigit {
}
Symbol iscntrl {
}
Symbol _Mtxdst {
}
Symbol semMCreate {
}
Symbol _Mtxunlock {
}
Symbol semDelete {
}
Symbol semTake {
}
Symbol ___x_gnu_xmtx_o {
}
Symbol _Mtxlock {
}
Symbol semGive {
}
Symbol _Mtxinit {
}
Symbol ___x_gnu_xmutex_o {
}
Symbol _ZNSt6_MutexD2Ev {
}
Symbol _ZNSt6_MutexC2Ev {
}
Symbol ___x_gnu_xstod_o {
}
Symbol strtod {
}
Symbol __ctype {
}
Symbol ___x_gnu_xstoll_o {
}
Symbol ___x_gnu_xstoull_o {
}
Symbol __udivdi3 {
}
Symbol __ctype_tolower {
}
Symbol ___x_gnu_xsyslock_o {
}
Symbol _Snan {
}
Symbol _Rteps {
}
Symbol _Inf {
}
Symbol _Eps {
}
Symbol ___x_gnu_xvalues_o {
}
Symbol _Denorm {
}
Symbol _Nan {
}
Symbol _Hugeval {
}
Symbol _Xbig {
}
Symbol _Zero {
}
Symbol __gnu_cplusplus_std_libraryInit {
}
ObjectFile libstl.a::_x_gnu_atexit_arm.o {
	NAME Object file _x_gnu_atexit_arm.o from archive libstl.a
	EXPORTS ___x_gnu_atexit_arm_o
	IMPORTS 
	DECLARES 
	USES 
}
Module _x_gnu_atexit_arm.o {
	OBJECT += libstl.a::_x_gnu_atexit_arm.o
}
ObjectFile libstl.a::_x_gnu_atexit_thread.o {
	NAME Object file _x_gnu_atexit_thread.o from archive libstl.a
	EXPORTS __cxa_thread_atexit ___x_gnu_atexit_thread_o
	IMPORTS __gthread_key_create __gthread_setspecific __dso_handle __gthread_once __gxx_personality_v0 _Unwind_Resume __cxa_atexit __gthread_key_delete atexit __cxa_guard_release __cxa_guard_abort _ZSt7nothrow __gthread_getspecific _ZnwjRKSt9nothrow_t __cxa_guard_acquire
	DECLARES 
	USES 
}
Module _x_gnu_atexit_thread.o {
	OBJECT += libstl.a::_x_gnu_atexit_thread.o
}
ObjectFile libstl.a::_x_gnu_eh_abi.o {
	NAME Object file _x_gnu_eh_abi.o from archive libstl.a
	EXPORTS _ZN10__cxxabiv115__forced_unwindD1Ev _ZN10__cxxabiv115__forced_unwindD2Ev ___x_gnu_eh_abi_o _ZN10__cxxabiv119__foreign_exceptionD2Ev _ZN10__cxxabiv119__foreign_exceptionD1Ev _ZTVN10__cxxabiv119__foreign_exceptionE _ZN10__cxxabiv119__foreign_exceptionD0Ev _ZTIN10__cxxabiv119__foreign_exceptionE _ZN10__cxxabiv115__forced_unwindD0Ev _ZTVN10__cxxabiv115__forced_unwindE _ZTIN10__cxxabiv115__forced_unwindE _ZTSN10__cxxabiv119__foreign_exceptionE _ZTSN10__cxxabiv115__forced_unwindE
	IMPORTS _ZdlPv __cxa_pure_virtual _ZTVN10__cxxabiv117__class_type_infoE
	DECLARES 
	USES 
}
Module _x_gnu_eh_abi.o {
	OBJECT += libstl.a::_x_gnu_eh_abi.o
}
ObjectFile libstl.a::_x_gnu_eh_compact_pr.o {
	NAME Object file _x_gnu_eh_compact_pr.o from archive libstl.a
	EXPORTS ___x_gnu_eh_compact_pr_o
	IMPORTS 
	DECLARES 
	USES 
}
Module _x_gnu_eh_compact_pr.o {
	OBJECT += libstl.a::_x_gnu_eh_compact_pr.o
}
ObjectFile libstl.a::_x_gnu_eh_ptr.o {
	NAME Object file _x_gnu_eh_ptr.o from archive libstl.a
	EXPORTS _ZNSt15__exception_ptrneERKNS_13exception_ptrES2_ _ZNSt15__exception_ptr13exception_ptrC2EMS0_FvvE _ZNSt15__exception_ptr13exception_ptraSERKS0_ _ZSt17rethrow_exceptionNSt15__exception_ptr13exception_ptrE _ZNSt15__exception_ptr13exception_ptr9_M_addrefEv _ZNSt15__exception_ptr13exception_ptrC2EPv _ZNKSt15__exception_ptr13exception_ptr20__cxa_exception_typeEv _ZNKSt15__exception_ptr13exception_ptrcvMS0_FvvEEv _ZNSt15__exception_ptr13exception_ptrC1ERKS0_ _ZNSt15__exception_ptr13exception_ptrC1EMS0_FvvE _ZNSt15__exception_ptr13exception_ptrC2Ev ___x_gnu_eh_ptr_o _ZNSt15__exception_ptr13exception_ptrD1Ev _ZNSt15__exception_ptr13exception_ptrC2ERKS0_ _ZNSt15__exception_ptr13exception_ptr4swapERS0_ _ZNSt15__exception_ptreqERKNS_13exception_ptrES2_ _ZNSt15__exception_ptr13exception_ptrC1Ev _ZNSt15__exception_ptr13exception_ptr18_M_safe_bool_dummyEv _ZNKSt15__exception_ptr13exception_ptr6_M_getEv _ZNKSt15__exception_ptr13exception_ptrntEv _ZNSt15__exception_ptr13exception_ptrD2Ev _ZNSt15__exception_ptr13exception_ptr10_M_releaseEv _ZNSt15__exception_ptr13exception_ptrC1EPv _ZSt17current_exceptionv
	IMPORTS __cxa_free_exception __cxa_free_dependent_exception __cxa_allocate_dependent_exception _ZSt9terminatev __gxx_personality_v0 _Unwind_RaiseException __cxa_begin_catch _ZN10__cxxabiv119__terminate_handlerE _ZN10__cxxabiv111__terminateEPFvvE __cxa_get_globals _ZN10__cxxabiv120__unexpected_handlerE
	DECLARES 
	USES 
}
Module _x_gnu_eh_ptr.o {
	OBJECT += libstl.a::_x_gnu_eh_ptr.o
}
ObjectFile libstl.a::_x_gnu_eh_tm.o {
	NAME Object file _x_gnu_eh_tm.o from archive libstl.a
	EXPORTS ___x_gnu_eh_tm_o __cxa_tm_cleanup
	IMPORTS __cxa_free_exception __cxa_free_dependent_exception __cxa_call_unexpected __gxx_personality_v0 _Unwind_Resume _Unwind_DeleteException __cxa_get_globals_fast
	DECLARES 
	USES 
}
Module _x_gnu_eh_tm.o {
	OBJECT += libstl.a::_x_gnu_eh_tm.o
}
ObjectFile libstl.a::_x_gnu_fiopen.o {
	NAME Object file _x_gnu_fiopen.o from archive libstl.a
	EXPORTS ___x_gnu_fiopen_o _ZSt7_FiopenPKcNSt5_IosbIiE9_OpenmodeEi
	IMPORTS fseek fopen fclose __cxa_guard_release __cxa_guard_acquire
	DECLARES 
	USES 
}
Module _x_gnu_fiopen.o {
	OBJECT += libstl.a::_x_gnu_fiopen.o
}
ObjectFile libstl.a::_x_gnu_gccstdexcept.o {
	NAME Object file _x_gnu_gccstdexcept.o from archive libstl.a
	EXPORTS _ZTSSt14overflow_error _ZTISt15underflow_error _ZTSSt12out_of_range _ZNSt14overflow_errorD0Ev _ZNSt14overflow_errorD2Ev _ZNSt12out_of_rangeD2Ev _ZNSt14overflow_errorD1Ev _ZNSt12length_errorD2Ev _ZTVSt12out_of_range _ZTVSt11range_error _ZNSt13runtime_errorD2Ev _ZTVSt16invalid_argument _ZTISt12out_of_range _ZTSSt16invalid_argument _ZTVSt11logic_error _ZNSt12length_errorD0Ev _ZTVSt14overflow_error _ZNSt15underflow_errorD1Ev _ZNSt11logic_errorD0Ev _ZTSSt12domain_error _ZNSt13runtime_errorD1Ev _ZNSt12domain_errorD1Ev _ZNSt15underflow_errorD0Ev _ZNSt11range_errorD2Ev _ZNKSt13runtime_error4whatEv _ZTISt13runtime_error _ZTVSt12length_error _ZNSt16invalid_argumentD2Ev _ZNSt12length_errorD1Ev _ZTISt11logic_error _ZNSt12domain_errorD2Ev _ZNSt16invalid_argumentD1Ev _ZTSSt15underflow_error _ZNSt15underflow_errorD2Ev _ZNSt11range_errorD1Ev _ZTSSt11range_error _ZTISt12domain_error _ZTISt14overflow_error _ZTISt12length_error _ZTSSt13runtime_error _ZNSt12out_of_rangeD1Ev _ZNSt11range_errorD0Ev _ZNSt11logic_errorD2Ev _ZTSSt11logic_error _ZNSt11logic_errorD1Ev _ZTISt11range_error _ZNSt12out_of_rangeD0Ev _ZNSt16invalid_argumentD0Ev _ZTSSt12length_error ___x_gnu_gccstdexcept_o _ZTVSt15underflow_error _ZNSt13runtime_errorD0Ev _ZTVSt12domain_error _ZNSt12domain_errorD0Ev _ZTVSt13runtime_error _ZNKSt11logic_error4whatEv _ZTISt16invalid_argument
	IMPORTS _ZNSt9exceptionD2Ev _ZTVN10__cxxabiv120__si_class_type_infoE _ZdlPv _ZTISt9exception
	DECLARES 
	USES 
}
Module _x_gnu_gccstdexcept.o {
	OBJECT += libstl.a::_x_gnu_gccstdexcept.o
}
ObjectFile libstl.a::_x_gnu_guard_error.o {
	NAME Object file _x_gnu_guard_error.o from archive libstl.a
	EXPORTS _ZN9__gnu_cxx20recursive_init_errorD1Ev _ZTIN9__gnu_cxx20recursive_init_errorE _ZTVN9__gnu_cxx20recursive_init_errorE _ZN9__gnu_cxx20recursive_init_errorD0Ev ___x_gnu_guard_error_o _ZTSN9__gnu_cxx20recursive_init_errorE _ZN9__gnu_cxx20recursive_init_errorD2Ev
	IMPORTS _ZNSt9exceptionD2Ev __cxa_call_unexpected _ZNKSt9exception4whatEv _ZTVN10__cxxabiv120__si_class_type_infoE _ZdlPv __gxx_personality_v0 _ZTISt9exception _Unwind_Resume
	DECLARES 
	USES 
}
Module _x_gnu_guard_error.o {
	OBJECT += libstl.a::_x_gnu_guard_error.o
}
ObjectFile libstl.a::_x_gnu_hash_bytes.o {
	NAME Object file _x_gnu_hash_bytes.o from archive libstl.a
	EXPORTS _ZSt11_Hash_bytesPKvjj ___x_gnu_hash_bytes_o _ZSt15_Fnv_hash_bytesPKvjj
	IMPORTS 
	DECLARES 
	USES 
}
Module _x_gnu_hash_bytes.o {
	OBJECT += libstl.a::_x_gnu_hash_bytes.o
}
ObjectFile libstl.a::_x_gnu_iomanip.o {
	NAME Object file _x_gnu_iomanip.o from archive libstl.a
	EXPORTS _ZSt13resetiosflagsNSt5_IosbIiE9_FmtflagsE _ZSt7setbasei _ZSt11setiosflagsNSt5_IosbIiE9_FmtflagsE ___x_gnu_iomanip_o _ZSt12setprecisioni _ZSt4setwi
	IMPORTS 
	DECLARES 
	USES 
}
Module _x_gnu_iomanip.o {
	OBJECT += libstl.a::_x_gnu_iomanip.o
}
ObjectFile libstl.a::_x_gnu_ios.o {
	NAME Object file _x_gnu_ios.o from archive libstl.a
	EXPORTS _ZSt7_BADOFF _ZTISt8ios_base _ZNSt8ios_base8_FindarrEi _ZNSt8ios_baseD1Ev _ZNSt8ios_base17register_callbackEPFvNS_5eventERS_iEi _ZTSSt5_IosbIiE _ZTSSt8ios_base _ZNSt8ios_base5_TidyEv _ZTVSt8ios_base _ZNSt8ios_base5_InitEv _ZNSt8ios_base5imbueERKSt6locale ___x_gnu_ios_o _ZNSt8ios_base5_SyncE _ZNSt8ios_base8_CallfnsENS_5eventE _ZSt4_Fpz _ZNSt8ios_base5clearENSt5_IosbIiE8_IostateEb _ZTSNSt8ios_base7failureE _ZNSt8ios_base6_IndexE _ZNSt8ios_baseD0Ev _ZNSt8ios_base7copyfmtERKS_ _ZNSt8ios_base7_AddstdEv _ZNSt8ios_baseD2Ev _ZTISt5_IosbIiE _ZTINSt8ios_base7failureE _ZTVNSt8ios_base7failureE
	IMPORTS __cxa_free_exception __cxa_rethrow memmove _ZNSt9exceptionD2Ev _ZNKSt12_String_base5_XranEv _ZNSt6localeC1Ev __cxa_call_unexpected _ZNKSt12_String_base5_XlenEv memcpy _ZNSt13runtime_errorD2Ev _ZTVN10__cxxabiv120__si_class_type_infoE _ZdlPv __cxa_end_catch __gxx_personality_v0 _Unwind_Resume _ZNKSt13runtime_error4whatEv _ZTISt13runtime_error _Locksyslock _Unlocksyslock _ZTVN10__cxxabiv117__class_type_infoE __cxa_throw __cxa_guard_release __cxa_begin_catch __cxa_allocate_exception _Znwj strlen _ZTVSt13runtime_error __cxa_guard_acquire
	DECLARES _ZNSsC1EPKc _ZNSt13runtime_errorC2ERKSs _ZNSt8ios_base7failureD0Ev _ZNSt6localeD1Ev _ZNSt8ios_base7failureD1Ev _ZNSs5_TidyEbj
	USES 
}
Module _x_gnu_ios.o {
	OBJECT += libstl.a::_x_gnu_ios.o
}
ObjectFile libstl.a::_x_gnu_iostream.o {
	NAME Object file _x_gnu_iostream.o from archive libstl.a
	EXPORTS _ZTVSt12codecvt_base _ZNSt9_FacetptrISt5ctypeIcEE6_PsaveE _ZTSNSt6locale5facetE _ZTVNSt6locale5facetE _ZTISt15basic_streambufIcSt11char_traitsIcEE _ZTVSo _ZTTSo _ZTVSt13basic_filebufIcSt11char_traitsIcEE _ZTISt10ctype_base _ZNSt7codecvtIcciE2idE _ZSt4cerr _ZNSt4fposIiE4_StzE _ZTSSt12codecvt_base _ZNSt8ios_base4InitC2Ev _ZTSSo _ZTSSt13basic_filebufIcSt11char_traitsIcEE _ZTVSt7codecvtIcciE _ZZNSt13basic_filebufIcSt11char_traitsIcEE5_InitEPFPP7__sFILEvENS2_7_InitflEE7_Stinit _ZTVSi _ZTISt9basic_iosIcSt11char_traitsIcEE _ZTISo _ZZNSt13basic_filebufIcSt11char_traitsIcEE5_InitEP7__sFILENS2_7_InitflEE7_Stinit _ZNSt9_FacetptrISt7codecvtIcciEE6_PsaveE _ZTISt7codecvtIcciE _ZTISt12codecvt_base _ZTSSt9basic_iosIcSt11char_traitsIcEE _GLOBAL__I_65535_0__ZNSt8ios_base4Init9_Init_cntE _ZTSSt7codecvtIcciE _ZNSt8ios_base4InitD2Ev _ZTINSt6locale5facetE _ZTVSt10ctype_base _ZTSSt10ctype_base _ZNSt8ios_base4InitC1Ev _ZTSSt15basic_streambufIcSt11char_traitsIcEE _ZTSSi _ZTISt5ctypeIcE _ZSt4clog _ZGVNSt7codecvtIcciE2idE _ZTISt13basic_filebufIcSt11char_traitsIcEE _ZSt3cin _ZTTSi _ZNSt8ios_base4InitD1Ev _ZTVSt5ctypeIcE _ZTVSt15basic_streambufIcSt11char_traitsIcEE ___x_gnu_iostream_o _ZTVSt9basic_iosIcSt11char_traitsIcEE _ZNSt8ios_base4Init9_Init_cntE _ZSt4cout _PJP_CPP_Copyright _ZTSSt5ctypeIcE _ZTISi
	IMPORTS __cxa_rethrow ungetc memmove _ZSt7_BADOFF _ZTISt8ios_base _ZNSt6localeC1Ev __cxa_call_unexpected _ZNKSt12_String_base5_XlenEv memcpy setvbuf tolower _ZNSt8_LocinfoD1Ev __dso_handle fflush _ZTVN10__cxxabiv120__si_class_type_infoE _ZNSt8ios_base5_InitEv _ZdlPv __stderr __cxa_end_catch fsetpos __gxx_personality_v0 _ZNSt5ctypeIcE2idE _ZNSt6locale2id7_Id_cntE _Unwind_Resume _Getctyptab fseek __stdin _ZSt4_Fpz _ZNSt6_Mutex7_UnlockEv _Locksyslock _Unlocksyslock _ZNSt6_Mutex5_LockEv __cxa_atexit _ZNSt8ios_base5clearENSt5_IosbIiE8_IostateEb _ZTVN10__cxxabiv117__class_type_infoE memset _ZdaPv fclose fgetpos _ZdlPvS_ fgetc _ZNSt8_LocinfoC1EPKc _ZTVN10__cxxabiv121__vmi_class_type_infoE _ZNSt8ios_base7_AddstdEv fputc _ZNSt8ios_baseD2Ev __cxa_begin_catch _ZNSt6_MutexC1Ev fwrite __stdout _ZNKSt6locale9_GetfacetEj _Znwj toupper _ZNSt6locale5facet9_RegisterEv _ZNSt6_MutexD1Ev free
	DECLARES _ZNKSt5ctypeIcE8do_widenEPKcS2_Pc _ZNKSt12codecvt_base11do_encodingEv _ZNSoD1Ev _ZNSt15basic_streambufIcSt11char_traitsIcEED0Ev _ZNSt15basic_streambufIcSt11char_traitsIcEED1Ev _ZNSt15basic_streambufIcSt11char_traitsIcEE9pbackfailEi _ZNSt6locale5facetD0Ev _ZNSiD0Ev _ZNSt7codecvtIcciED0Ev _ZNSt10ctype_baseD1Ev _ZNSt6locale5facetD1Ev _ZNSt15basic_streambufIcSt11char_traitsIcEE9showmanycEv _ZNSt10ctype_baseD0Ev _ZNKSt5ctypeIcE10do_tolowerEPcPKc _ZNSt13basic_filebufIcSt11char_traitsIcEE5imbueERKSt6locale _ZNSt13basic_filebufIcSt11char_traitsIcEE7seekoffElNSt5_IosbIiE8_SeekdirENS4_9_OpenmodeE _ZNKSt12codecvt_base13do_max_lengthEv _ZNSt15basic_streambufIcSt11char_traitsIcEE8overflowEi _ZNSt13basic_filebufIcSt11char_traitsIcEE4syncEv _ZNKSt12codecvt_base16do_always_noconvEv _ZNSt15basic_streambufIcSt11char_traitsIcEE7seekposESt4fposIiENSt5_IosbIiE9_OpenmodeE _ZNKSt5ctypeIcE10do_toupperEPcPKc _ZNKSt5ctypeIcE10do_tolowerEc _ZNKSt7codecvtIcciE5do_inERiPKcS3_RS3_PcS5_RS5_ _ZNSt15basic_streambufIcSt11char_traitsIcEE7_UnlockEv _ZNSt13basic_filebufIcSt11char_traitsIcEE8overflowEi _ZNSt15basic_streambufIcSt11char_traitsIcEE5_LockEv _ZNKSt5ctypeIcE9do_narrowEcc _ZNSt15basic_streambufIcSt11char_traitsIcEE5imbueERKSt6locale _ZNSt15basic_streambufIcSt11char_traitsIcEE9underflowEv _ZNSoD0Ev _ZNSt13basic_filebufIcSt11char_traitsIcEE6setbufEPci _ZNSt5ctypeIcED1Ev _ZNSs6appendEjc _ZNSt6localeD1Ev _ZNKSt5ctypeIcE10do_toupperEc _ZNSt15basic_streambufIcSt11char_traitsIcEE4syncEv _ZNKSt7codecvtIcciE10do_unshiftERiPcS2_RS2_ _ZNKSt7codecvtIcciE6do_outERiPKcS3_RS3_PcS5_RS5_ _ZNSt15basic_streambufIcSt11char_traitsIcEED2Ev _ZNSt15basic_streambufIcSt11char_traitsIcEE6xsgetnEPci _ZNSt12codecvt_baseD0Ev _ZNSt5ctypeIcED0Ev _ZNSt15basic_streambufIcSt11char_traitsIcEE6xsputnEPKci _ZNSt15basic_streambufIcSt11char_traitsIcEE6setbufEPci _ZNSt9basic_iosIcSt11char_traitsIcEED0Ev _ZNSt15basic_streambufIcSt11char_traitsIcEE7seekoffElNSt5_IosbIiE8_SeekdirENS4_9_OpenmodeE _ZNSt13basic_filebufIcSt11char_traitsIcEED1Ev _ZNSiD1Ev _ZNSt7codecvtIcciED1Ev _ZNSt13basic_filebufIcSt11char_traitsIcEE5uflowEv _ZTv0_n12_NSiD1Ev _ZNKSt5ctypeIcE9do_narrowEPKcS2_cPc _ZNSt12codecvt_baseD1Ev _ZNKSt5ctypeIcE8do_widenEc _ZTv0_n12_NSoD1Ev _ZNKSt7codecvtIcciE9do_lengthERKiPKcS4_j _ZNSt13basic_filebufIcSt11char_traitsIcEE9underflowEv _ZNSt9basic_iosIcSt11char_traitsIcEED1Ev _ZNSt13basic_filebufIcSt11char_traitsIcEE7seekposESt4fposIiENSt5_IosbIiE9_OpenmodeE _ZTv0_n12_NSiD0Ev _ZTv0_n12_NSoD0Ev _ZNSt13basic_filebufIcSt11char_traitsIcEE9pbackfailEi _ZNSt13basic_filebufIcSt11char_traitsIcEED0Ev _ZNSt15basic_streambufIcSt11char_traitsIcEE5uflowEv _ZNSs5_TidyEbj
	USES 
}
Module _x_gnu_iostream.o {
	OBJECT += libstl.a::_x_gnu_iostream.o
}
ObjectFile libstl.a::_x_gnu_limits.o {
	NAME Object file _x_gnu_limits.o from archive libstl.a
	EXPORTS _ZNSt15_Num_float_base14is_specializedE _ZNSt15_Num_float_base15tinyness_beforeE _ZNSt15_Num_float_base5radixE _ZNSt14numeric_limitsIdE6digitsE _ZNSt9_Num_base15has_denorm_lossE _ZNSt14numeric_limitsIlE9is_signedE _ZNSt15_Num_float_base9is_iec559E _ZNSt15_Num_float_base10has_denormE _ZNSt14numeric_limitsIiE6digitsE _ZNSt14numeric_limitsIfE14max_exponent10E _ZNSt15_Num_float_base10is_boundedE _ZNSt9_Num_base9is_signedE _ZNSt14numeric_limitsIfE6digitsE _ZNSt14numeric_limitsIfE8digits10E _ZNSt14numeric_limitsIaE9is_signedE _ZNSt9_Num_base15tinyness_beforeE _ZNSt14numeric_limitsIbE8digits10E _ZNSt9_Num_base9is_iec559E _ZNSt14numeric_limitsIiE9is_signedE _ZNSt14numeric_limitsIcE8digits10E _ZNSt14numeric_limitsIjE8digits10E _ZNSt14numeric_limitsIhE6digitsE _ZNSt14numeric_limitsItE9is_signedE ___x_gnu_limits_o _ZNSt9_Num_base11round_styleE _ZNSt13_Num_int_base10is_boundedE _ZNSt13_Num_int_base14is_specializedE _ZNSt14numeric_limitsIfE12max_exponentE _ZNSt14numeric_limitsIyE6digitsE _ZNSt14numeric_limitsIeE14max_exponent10E _ZNSt13_Num_int_base9is_moduloE _ZNSt9_Num_base17has_signaling_NaNE _ZNSt14numeric_limitsIfE12min_exponentE _ZNSt14numeric_limitsIeE6digitsE _ZNSt14numeric_limitsIbE9is_signedE _ZNSt14numeric_limitsIxE6digitsE _ZNSt14numeric_limitsIjE6digitsE _ZNSt14numeric_limitsIbE6digitsE _ZNSt9_Num_base12max_exponentE _ZNSt9_Num_base12has_infinityE _ZNSt9_Num_base5radixE _ZNSt14numeric_limitsIlE6digitsE _ZNSt9_Num_base10is_boundedE _ZNSt9_Num_base13has_quiet_NaNE _ZNSt14numeric_limitsIsE9is_signedE _ZNSt9_Num_base5trapsE _ZNSt14numeric_limitsIlE8digits10E _ZNSt14numeric_limitsIdE12max_exponentE _ZNSt14numeric_limitsIfE14min_exponent10E _ZNSt15_Num_float_base9is_signedE _ZNSt15_Num_float_base15has_denorm_lossE _ZNSt9_Num_base12min_exponentE _ZNSt14numeric_limitsIxE8digits10E _ZNSt15_Num_float_base10is_integerE _ZNSt14numeric_limitsImE8digits10E _ZNSt14numeric_limitsIxE9is_signedE _ZNSt15_Num_float_base11round_styleE _ZNSt14numeric_limitsIjE9is_signedE _ZNSt14numeric_limitsIhE8digits10E _ZNSt14numeric_limitsIeE12min_exponentE _ZNSt9_Num_base8digits10E _ZNSt15_Num_float_base17has_signaling_NaNE _ZNSt13_Num_int_base8is_exactE _ZNSt9_Num_base6digitsE _ZNSt9_Num_base14min_exponent10E _ZNSt14numeric_limitsImE9is_signedE _ZNSt14numeric_limitsIdE14min_exponent10E _ZNSt14numeric_limitsItE6digitsE _ZNSt14numeric_limitsIeE8digits10E _ZNSt14numeric_limitsIyE9is_signedE _ZNSt9_Num_base9is_moduloE _ZNSt9_Num_base14is_specializedE _ZNSt14numeric_limitsIaE6digitsE _ZNSt14numeric_limitsIeE14min_exponent10E _ZNSt15_Num_float_base5trapsE _ZNSt15_Num_float_base8is_exactE _ZNSt9_Num_base14max_exponent10E _ZNSt14numeric_limitsIdE12min_exponentE _ZNSt14numeric_limitsIcE9is_signedE _ZNSt14numeric_limitsIdE8digits10E _ZNSt9_Num_base10is_integerE _ZNSt14numeric_limitsIhE9is_signedE _ZNSt14numeric_limitsIdE14max_exponent10E _ZNSt15_Num_float_base13has_quiet_NaNE _ZNSt15_Num_float_base9is_moduloE _ZNSt14numeric_limitsIsE8digits10E _ZNSt15_Num_float_base12has_infinityE _ZNSt14numeric_limitsIaE8digits10E _ZNSt14numeric_limitsIyE8digits10E _ZNSt14numeric_limitsIiE8digits10E _ZNSt13_Num_int_base5radixE _ZNSt14numeric_limitsIbE9is_moduloE _ZNSt13_Num_int_base10is_integerE _ZNSt14numeric_limitsImE6digitsE _ZNSt9_Num_base8is_exactE _ZNSt14numeric_limitsIcE6digitsE _ZNSt14numeric_limitsItE8digits10E _ZNSt9_Num_base10has_denormE _ZNSt14numeric_limitsIeE12max_exponentE _ZNSt14numeric_limitsIsE6digitsE
	IMPORTS 
	DECLARES 
	USES 
}
Module _x_gnu_limits.o {
	OBJECT += libstl.a::_x_gnu_limits.o
}
ObjectFile libstl.a::_x_gnu_locale.o {
	NAME Object file _x_gnu_locale.o from archive libstl.a
	EXPORTS _ZTVSt12codecvt_base _ZNSt6localeC1ERKS_PKci _ZNSt9_FacetptrISt5ctypeIcEE6_PsaveE _ZNSt6localeC1EPKci _ZTSNSt6locale5facetE _ZTVNSt6locale5facetE _ZNSt9_FacetptrISt7num_putIcSt19ostreambuf_iteratorIcSt11char_traitsIcEEEE6_PsaveE _ZNSt8_LocinfoC2EiPKc _ZTISt10ctype_base _ZNSt6locale7_AddfacEPNS_5facetEjj ___x_gnu_locale_o _ZNSt7codecvtIcciE2idE _ZNSt6locale7_Locimp7_AddfacEPNS_5facetEj _ZTVSt7num_putIcSt19ostreambuf_iteratorIcSt11char_traitsIcEEE _ZTSSt12codecvt_base _ZNSt6locale7_LocimpC1ERKS0_ _ZGVNSt7num_getIcSt19istreambuf_iteratorIcSt11char_traitsIcEEE2idE _ZNSt7num_putIcSt19ostreambuf_iteratorIcSt11char_traitsIcEEE2idE _ZTSSt8numpunctIcE _ZTVSt7codecvtIcciE _ZNSt9_FacetptrISt7codecvtIcciEE6_PsaveE _ZTISt7codecvtIcciE _ZTSSt7num_putIcSt19ostreambuf_iteratorIcSt11char_traitsIcEEE _ZNSt8_LocinfoC1EiPKc _ZNSt8_Locinfo8_AddcatsEiPKc _ZNSt8numpunctIcE2idE _ZNSt6localeC1ERKS_S1_i _ZTISt12codecvt_base _ZNSt6locale7_LocimpC2ERKS0_ _ZTSSt7codecvtIcciE _ZTINSt6locale5facetE _ZGVNSt7num_putIcSt19ostreambuf_iteratorIcSt11char_traitsIcEEE2idE _ZTVSt10ctype_base _ZTSSt10ctype_base _ZTVSt8numpunctIcE _GLOBAL__I_65535_0__ZNSt6localeC2ERKS_S1_i _ZNSt6localeC2EPKci _ZTISt7num_putIcSt19ostreambuf_iteratorIcSt11char_traitsIcEEE _ZTISt5ctypeIcE _ZGVNSt7codecvtIcciE2idE _ZTSSt7num_getIcSt19istreambuf_iteratorIcSt11char_traitsIcEEE _ZTISt7num_getIcSt19istreambuf_iteratorIcSt11char_traitsIcEEE _ZNSt6localeC2ERKS_S1_i _ZTVSt5ctypeIcE _ZGVNSt8numpunctIcE2idE _ZNSt6locale7_Locimp8_MakelocERKSt8_LocinfoiPS0_PKS_ _ZNSt9_FacetptrISt8numpunctIcEE6_PsaveE _ZTVSt7num_getIcSt19istreambuf_iteratorIcSt11char_traitsIcEEE _ZNSt7num_getIcSt19istreambuf_iteratorIcSt11char_traitsIcEEE2idE _ZTSSt5ctypeIcE _ZNSt6locale6globalERKS_ _ZNSt6localeC2ERKS_PKci _ZTISt8numpunctIcE _ZNSt9_FacetptrISt7num_getIcSt19istreambuf_iteratorIcSt11char_traitsIcEEEE6_PsaveE
	IMPORTS __cxa_free_exception _Znaj __cxa_rethrow _ZNSt6locale7_Locimp8_ClocptrE __locale memmove _ZNSt9exceptionD2Ev __errno _ZNKSt12_String_base5_XranEv _ZNSt6localeC1Ev __cxa_call_unexpected _ZNKSt12_String_base5_XlenEv memcpy _Setgloballocale tolower _Stod malloc _ZNSt8_LocinfoD1Ev _ZNSt6locale7_LocimpC1Eb strtoul _ZTVN10__cxxabiv120__si_class_type_infoE _ZdlPv __cxa_end_catch strtol __gxx_personality_v0 _ZNSt6locale7_Locimp9_MakexlocERKSt8_LocinfoiPS0_PKS_ _ZNSt13runtime_errorD1Ev _ZNSt5ctypeIcE2idE _ZNSt6locale2id7_Id_cntE _Unwind_Resume _Getctyptab _Getgloballocale _ZTISt13runtime_error memchr _ZNSt6locale5_InitEv _Locksyslock _Unlocksyslock realloc memcmp _ZTVN10__cxxabiv117__class_type_infoE __cxa_throw memset _Stoll _ZdaPv _ZSt9_Nomemoryv sprintf _ZNSt8_LocinfoC1EPKc strcspn setlocale _ZTVNSt6locale7_LocimpE __cxa_begin_catch _Stold __cxa_allocate_exception _Stof _ZNKSt6locale9_GetfacetEj _Znwj _Stoull strlen toupper _ZTVSt13runtime_error _ZNSt6locale5facet9_RegisterEv free
	DECLARES _ZNKSt7num_putIcSt19ostreambuf_iteratorIcSt11char_traitsIcEEE6do_putES3_RSt8ios_basecm _ZNKSt5ctypeIcE8do_widenEPKcS2_Pc _ZNSt8numpunctIcEC1Ej _ZNKSt12codecvt_base11do_encodingEv _ZNSt6localeC1ERKS_ _ZNKSt7num_putIcSt19ostreambuf_iteratorIcSt11char_traitsIcEEE6do_putES3_RSt8ios_basecPKv _ZNSt6locale5facetD0Ev _ZNKSt7num_getIcSt19istreambuf_iteratorIcSt11char_traitsIcEEE6do_getES3_S3_RSt8ios_baseRNSt5_IosbIiE8_IostateERPv _ZNKSt7num_getIcSt19istreambuf_iteratorIcSt11char_traitsIcEEE6do_getES3_S3_RSt8ios_baseRNSt5_IosbIiE8_IostateERy _ZNKSt7num_putIcSt19ostreambuf_iteratorIcSt11char_traitsIcEEE11_PutgroupedES3_PKcjc _ZNSt7codecvtIcciED0Ev _ZNSt10ctype_baseD1Ev _ZNSsC1EPKc _ZNSt7num_getIcSt19istreambuf_iteratorIcSt11char_traitsIcEEED0Ev _ZNSt6locale5facet7_DecrefEv _ZNSt6locale5facetD1Ev _ZNKSt7num_putIcSt19ostreambuf_iteratorIcSt11char_traitsIcEEE5_FputES3_RSt8ios_basecPKcjjjj _ZNSt10ctype_baseD0Ev _ZNKSt5ctypeIcE10do_tolowerEPcPKc _ZNSt7num_putIcSt19ostreambuf_iteratorIcSt11char_traitsIcEEED1Ev _ZNKSt12codecvt_base13do_max_lengthEv _ZNSs6assignERKSsjj _ZNKSt7num_getIcSt19istreambuf_iteratorIcSt11char_traitsIcEEE6do_getES3_S3_RSt8ios_baseRNSt5_IosbIiE8_IostateERm _ZNKSt7num_putIcSt19ostreambuf_iteratorIcSt11char_traitsIcEEE6do_putES3_RSt8ios_basecb _ZNSt8numpunctIcED0Ev _ZNKSt7num_getIcSt19istreambuf_iteratorIcSt11char_traitsIcEEE8_GetffldEPcRS3_S6_RKSt6locale _ZNKSt7num_getIcSt19istreambuf_iteratorIcSt11char_traitsIcEEE6do_getES3_S3_RSt8ios_baseRNSt5_IosbIiE8_IostateERf _ZNKSt7num_getIcSt19istreambuf_iteratorIcSt11char_traitsIcEEE6do_getES3_S3_RSt8ios_baseRNSt5_IosbIiE8_IostateERb _ZSt9use_facetISt8numpunctIcEERKT_RKSt6locale _ZNSt8numpunctIcE5_TidyEv _ZNKSt12codecvt_base16do_always_noconvEv _ZNSt7num_putIcSt19ostreambuf_iteratorIcSt11char_traitsIcEEED0Ev _ZNKSt5ctypeIcE10do_toupperEPcPKc _ZNKSt5ctypeIcE10do_tolowerEc _ZNKSt7codecvtIcciE5do_inERiPKcS3_RS3_PcS5_RS5_ _ZNKSt8numpunctIcE12do_falsenameEv _ZNKSt7num_getIcSt19istreambuf_iteratorIcSt11char_traitsIcEEE6do_getES3_S3_RSt8ios_baseRNSt5_IosbIiE8_IostateERt _ZNSt19istreambuf_iteratorIcSt11char_traitsIcEE5_PeekEv _ZNKSt5ctypeIcE9do_narrowEcc _ZNKSt8numpunctIcE16do_thousands_sepEv _ZNKSt7num_putIcSt19ostreambuf_iteratorIcSt11char_traitsIcEEE6do_putES3_RSt8ios_basecd _ZNKSt7num_putIcSt19ostreambuf_iteratorIcSt11char_traitsIcEEE6do_putES3_RSt8ios_basece _ZNKSt8numpunctIcE11do_truenameEv _ZNSt8numpunctIcED1Ev _ZNSt5ctypeIcED1Ev _ZNSs6appendEjc _ZNKSt8numpunctIcE11do_groupingEv _ZNSs6appendERKSsjj _ZNSt6localeD1Ev _ZNKSt5ctypeIcE10do_toupperEc _ZNKSt7num_getIcSt19istreambuf_iteratorIcSt11char_traitsIcEEE6do_getES3_S3_RSt8ios_baseRNSt5_IosbIiE8_IostateERe _ZNKSt7codecvtIcciE10do_unshiftERiPcS2_RS2_ _ZNSt7num_getIcSt19istreambuf_iteratorIcSt11char_traitsIcEEED1Ev _ZNKSt7codecvtIcciE6do_outERiPKcS3_RS3_PcS5_RS5_ _ZNKSt7num_getIcSt19istreambuf_iteratorIcSt11char_traitsIcEEE6do_getES3_S3_RSt8ios_baseRNSt5_IosbIiE8_IostateERl _ZNSt12codecvt_baseD0Ev _ZNSt19istreambuf_iteratorIcSt11char_traitsIcEE4_IncEv _ZNSt5ctypeIcED0Ev _ZNKSt7num_getIcSt19istreambuf_iteratorIcSt11char_traitsIcEEE8_GetifldEPcRS3_S6_NSt5_IosbIiE9_FmtflagsERKSt6locale _ZNKSt8numpunctIcE16do_decimal_pointEv _ZNKSt7num_putIcSt19ostreambuf_iteratorIcSt11char_traitsIcEEE6do_putES3_RSt8ios_basecy _ZNKSt19istreambuf_iteratorIcSt11char_traitsIcEE5equalERKS2_ _ZNKSt7num_putIcSt19ostreambuf_iteratorIcSt11char_traitsIcEEE5_IputES3_RSt8ios_basecPcj _ZNKSt7num_getIcSt19istreambuf_iteratorIcSt11char_traitsIcEEE6do_getES3_S3_RSt8ios_baseRNSt5_IosbIiE8_IostateERx _ZNSt7codecvtIcciED1Ev _ZNKSt7num_putIcSt19ostreambuf_iteratorIcSt11char_traitsIcEEE6do_putES3_RSt8ios_basecx _ZNKSt5ctypeIcE9do_narrowEPKcS2_cPc _ZNKSt7num_putIcSt19ostreambuf_iteratorIcSt11char_traitsIcEEE6do_putES3_RSt8ios_basecl _ZNSt12codecvt_baseD1Ev _ZNKSt5ctypeIcE8do_widenEc _ZNKSt7codecvtIcciE9do_lengthERKiPKcS4_j _ZNSs6insertEjjc _ZNKSt7num_getIcSt19istreambuf_iteratorIcSt11char_traitsIcEEE6do_getES3_S3_RSt8ios_baseRNSt5_IosbIiE8_IostateERd _ZNKSt7num_getIcSt19istreambuf_iteratorIcSt11char_traitsIcEEE6do_getES3_S3_RSt8ios_baseRNSt5_IosbIiE8_IostateERj _ZNSs5_TidyEbj _ZNSt13runtime_errorC1ERKSs
	USES 
}
Module _x_gnu_locale.o {
	OBJECT += libstl.a::_x_gnu_locale.o
}
ObjectFile libstl.a::_x_gnu_locale0.o {
	NAME Object file _x_gnu_locale0.o from archive libstl.a
	EXPORTS _ZTSNSt6locale5facetE _ZTVNSt6locale5facetE _ZNSt6locale7_Locimp8_ClocptrE _ZNSt6localeC1Ev _Setgloballocale _ZNSt8_LocinfoD1Ev _ZNSt6locale7_LocimpC1Eb _ZNKSt6localeeqERKS_ _GLOBAL__I_65535_0__Fac_tidy _ZTINSt6locale7_LocimpE _ZNSt5ctypeIcE2idE _ZNSt6locale2id7_Id_cntE _Getgloballocale _ZNSt6locale7_LocimpD0Ev _ZNSt6locale5_InitEv _ZNSt6locale7classicEv _ZTINSt6locale5facetE _ZNSt6locale7_LocimpD1Ev _ZNSt6locale5emptyEv _ZNSt8_LocinfoD2Ev _ZNSt8_LocinfoC1EPKc _ZTVNSt6locale7_LocimpE _ZNSt8_LocinfoC2EPKc _Fac_tidy _ZNKSt6locale9_GetfacetEj _ZTSNSt6locale7_LocimpE _ZNSt6locale7_LocimpD2Ev _Deletegloballocale _ZNSt6localeC2Ev _ZNSt5ctypeIcE10table_sizeE _ZNSt6locale5facet9_RegisterEv ___x_gnu_locale0_o _ZNSt6locale7_LocimpC2Eb
	IMPORTS __cxa_rethrow memmove _ZNKSt12_String_base5_XranEv __cxa_call_unexpected _ZNKSt12_String_base5_XlenEv memcpy __dso_handle _ZTVN10__cxxabiv120__si_class_type_infoE _ZdlPv __cxa_end_catch _Atexit __gxx_personality_v0 _Unwind_Resume _Locksyslock _Unlocksyslock __cxa_atexit memcmp _ZTVN10__cxxabiv117__class_type_infoE setlocale __cxa_begin_catch _Znwj strlen free
	DECLARES _ZNSt6locale5facetD0Ev _ZNSt6locale5facetD1Ev _ZNSt6localeD1Ev _ZNSs5_CopyEjj _ZNSs5_TidyEbj
	USES 
}
Module _x_gnu_locale0.o {
	OBJECT += libstl.a::_x_gnu_locale0.o
}
ObjectFile libstl.a::_x_gnu_nested_exception.o {
	NAME Object file _x_gnu_nested_exception.o from archive libstl.a
	EXPORTS ___x_gnu_nested_exception_o
	IMPORTS 
	DECLARES 
	USES 
}
Module _x_gnu_nested_exception.o {
	OBJECT += libstl.a::_x_gnu_nested_exception.o
}
ObjectFile libstl.a::_x_gnu_string.o {
	NAME Object file _x_gnu_string.o from archive libstl.a
	EXPORTS ___x_gnu_string_o _ZNKSt12_String_base5_XranEv _ZNKSt12_String_base5_XlenEv
	IMPORTS __cxa_free_exception __cxa_rethrow memmove _ZNSt9exceptionD2Ev _ZTVSt12out_of_range memcpy _ZTISt12out_of_range _ZTVSt11logic_error _ZdlPv __cxa_end_catch __gxx_personality_v0 _Unwind_Resume _ZTVSt12length_error _ZNSt12length_errorD1Ev __cxa_throw _ZTISt12length_error _ZNSt12out_of_rangeD1Ev __cxa_begin_catch __cxa_allocate_exception _Znwj strlen
	DECLARES _ZNSs5_TidyEbj
	USES 
}
Module _x_gnu_string.o {
	OBJECT += libstl.a::_x_gnu_string.o
}
ObjectFile libstl.a::_x_gnu_strstrea.o {
	NAME Object file _x_gnu_strstrea.o from archive libstl.a
	EXPORTS _ZNSt12strstreambuf7seekposESt4fposIiENSt5_IosbIiE9_OpenmodeE _ZTCSd0_Si _ZNSt9_FacetptrISt5ctypeIcEE6_PsaveE _ZTSNSt6locale5facetE _ZTVSd _ZTVSt10ostrstream _ZTVNSt6locale5facetE _ZTv0_n12_NSt10istrstreamD0Ev _ZTISt15basic_streambufIcSt11char_traitsIcEE _ZTVSo _ZTVSt12strstreambuf _ZTVSt10istrstream _ZTv0_n12_NSt10istrstreamD1Ev _ZTTSo _ZTISt10ostrstream _ZTISt10ctype_base _ZNSt10ostrstreamD1Ev _ZThn8_NSt9strstreamD1Ev _ZTVSt9strstream _ZTISd _ZThn8_NSt9strstreamD0Ev _ZNSt4fposIiE4_StzE _ZTSSt12strstreambuf _ZNSt12strstreambuf5_InitEiPcS0_i _ZNSt12strstreambufD2Ev _ZNSt12strstreambuf5_TidyEv _ZTTSt9strstream _ZTSSo _ZNSt10ostrstreamC1EPciNSt5_IosbIiE9_OpenmodeE _ZNSt9strstreamD1Ev _ZNSt12strstreambuf6freezeEb _ZTVSi _ZTISt10istrstream _ZTISt9basic_iosIcSt11char_traitsIcEE _ZTISo _ZTTSt10istrstream _ZNSt10istrstreamD0Ev _ZNSt10istrstreamD2Ev _ZNSt10ostrstreamD2Ev _ZNSt9strstreamD0Ev _ZNSt10istrstreamD1Ev _ZTv0_n12_NSt10ostrstreamD0Ev _ZTSSt9basic_iosIcSt11char_traitsIcEE _ZTCSt9strstream0_Si _ZNSt12strstreambuf8overflowEi _ZTCSd8_So _ZTINSt6locale5facetE _ZTTSt10ostrstream _ZTVSt10ctype_base _ZTSSt10ctype_base _ZTSSd _ZTCSt9strstream8_So _ZTv0_n12_NSt9strstreamD0Ev _ZTv0_n12_NSt9strstreamD1Ev _ZTCSt9strstream0_Sd _ZNSt12strstreambufD0Ev _ZTSSt9strstream _ZTCSt10istrstream0_Si _ZTSSt15basic_streambufIcSt11char_traitsIcEE _ZTTSd _ZTSSi _ZTISt5ctypeIcE _ZTISt9strstream _ZTISt12strstreambuf _ZNSt10ostrstreamD0Ev _ZTTSi _ZNSt9strstreamC1EPciNSt5_IosbIiE9_OpenmodeE _ZTVSt5ctypeIcE _ZNSt9strstreamC2EPciNSt5_IosbIiE9_OpenmodeE _ZTVSt15basic_streambufIcSt11char_traitsIcEE _ZTSSt10ostrstream _ZNSt12strstreambuf7seekoffElNSt5_IosbIiE8_SeekdirENS1_9_OpenmodeE _ZTVSt9basic_iosIcSt11char_traitsIcEE _ZNSt10ostrstreamC2EPciNSt5_IosbIiE9_OpenmodeE _ZTCSt10ostrstream0_So _ZNSt12strstreambuf9pbackfailEi _ZTv0_n12_NSt10ostrstreamD1Ev _ZTSSt10istrstream _ZNSt12strstreambufD1Ev _ZTSSt5ctypeIcE _ZNSt12strstreambuf9underflowEv _ZNSt9strstreamD2Ev _ZTISi ___x_gnu_strstrea_o
	IMPORTS _Znaj _ZSt7_BADOFF _ZTISt8ios_base _ZNSt6localeC1Ev __cxa_call_unexpected memcpy tolower _ZNSt8_LocinfoD1Ev _ZTVN10__cxxabiv120__si_class_type_infoE _ZNSt8ios_base5_InitEv _ZdlPv __gxx_personality_v0 _ZNSt5ctypeIcE2idE _ZNSt6locale2id7_Id_cntE _Unwind_Resume _Getctyptab _ZSt4_Fpz _ZNSt6_Mutex7_UnlockEv _Locksyslock _Unlocksyslock _ZNSt6_Mutex5_LockEv _ZNSt8ios_base5clearENSt5_IosbIiE8_IostateEb _ZTVN10__cxxabiv117__class_type_infoE _ZdaPv _ZNSt8_LocinfoC1EPKc _ZTVN10__cxxabiv121__vmi_class_type_infoE _ZNSt8ios_base7_AddstdEv _ZNSt8ios_baseD2Ev _ZNSt6_MutexC1Ev _ZNKSt6locale9_GetfacetEj _Znwj strlen toupper _ZNSt6locale5facet9_RegisterEv _ZNSt6_MutexD1Ev free
	DECLARES _ZNKSt5ctypeIcE8do_widenEPKcS2_Pc _ZNSoD1Ev _ZNSt15basic_streambufIcSt11char_traitsIcEED0Ev _ZNSt15basic_streambufIcSt11char_traitsIcEED1Ev _ZNSt15basic_streambufIcSt11char_traitsIcEE9pbackfailEi _ZNSt6locale5facetD0Ev _ZNSiD0Ev _ZNSt10ctype_baseD1Ev _ZNSt6locale5facetD1Ev _ZNSt15basic_streambufIcSt11char_traitsIcEE9showmanycEv _ZNSt10ctype_baseD0Ev _ZNKSt5ctypeIcE10do_tolowerEPcPKc _ZNSdD1Ev _ZNSt15basic_streambufIcSt11char_traitsIcEE8overflowEi _ZThn8_NSdD0Ev _ZNSt15basic_streambufIcSt11char_traitsIcEE7seekposESt4fposIiENSt5_IosbIiE9_OpenmodeE _ZNKSt5ctypeIcE10do_toupperEPcPKc _ZNSt9basic_iosIcSt11char_traitsIcEE4initEPSt15basic_streambufIcS1_Eb _ZNKSt5ctypeIcE10do_tolowerEc _ZNSt15basic_streambufIcSt11char_traitsIcEE7_UnlockEv _ZNSdD2Ev _ZNSt15basic_streambufIcSt11char_traitsIcEE5_LockEv _ZNKSt5ctypeIcE9do_narrowEcc _ZNSt15basic_streambufIcSt11char_traitsIcEE5imbueERKSt6locale _ZNSt15basic_streambufIcSt11char_traitsIcEE9underflowEv _ZNSoD0Ev _ZTv0_n12_NSdD1Ev _ZNSt5ctypeIcED1Ev _ZNSt6localeD1Ev _ZNKSt5ctypeIcE10do_toupperEc _ZNSt15basic_streambufIcSt11char_traitsIcEE4syncEv _ZNSt15basic_streambufIcSt11char_traitsIcEED2Ev _ZNSt15basic_streambufIcSt11char_traitsIcEE6xsgetnEPci _ZNSt5ctypeIcED0Ev _ZNSt15basic_streambufIcSt11char_traitsIcEE6xsputnEPKci _ZNSt15basic_streambufIcSt11char_traitsIcEE6setbufEPci _ZNSt9basic_iosIcSt11char_traitsIcEED0Ev _ZNSt15basic_streambufIcSt11char_traitsIcEE7seekoffElNSt5_IosbIiE8_SeekdirENS4_9_OpenmodeE _ZTv0_n12_NSdD0Ev _ZNSiD1Ev _ZTv0_n12_NSiD1Ev _ZNKSt5ctypeIcE9do_narrowEPKcS2_cPc _ZNKSt5ctypeIcE8do_widenEc _ZTv0_n12_NSoD1Ev _ZNSt9basic_iosIcSt11char_traitsIcEED1Ev _ZNSdD0Ev _ZThn8_NSdD1Ev _ZTv0_n12_NSiD0Ev _ZTv0_n12_NSoD0Ev _ZNSt15basic_streambufIcSt11char_traitsIcEE5uflowEv
	USES 
}
Module _x_gnu_strstrea.o {
	OBJECT += libstl.a::_x_gnu_strstrea.o
}
ObjectFile libstl.a::_x_gnu_wiostrea.o {
	NAME Object file _x_gnu_wiostrea.o from archive libstl.a
	EXPORTS ___x_gnu_wiostrea_o
	IMPORTS 
	DECLARES 
	USES 
}
Module _x_gnu_wiostrea.o {
	OBJECT += libstl.a::_x_gnu_wiostrea.o
}
ObjectFile libstl.a::_x_gnu_wlocale.o {
	NAME Object file _x_gnu_wlocale.o from archive libstl.a
	EXPORTS ___x_gnu_wlocale_o
	IMPORTS 
	DECLARES 
	USES 
}
Module _x_gnu_wlocale.o {
	OBJECT += libstl.a::_x_gnu_wlocale.o
}
ObjectFile libstl.a::_x_gnu_xatexit.o {
	NAME Object file _x_gnu_xatexit.o from archive libstl.a
	EXPORTS ___x_gnu_xatexit_o _Atexit
	IMPORTS atexit
	DECLARES 
	USES 
}
Module _x_gnu_xatexit.o {
	OBJECT += libstl.a::_x_gnu_xatexit.o
}
ObjectFile libstl.a::_x_gnu_xdtest.o {
	NAME Object file _x_gnu_xdtest.o from archive libstl.a
	EXPORTS ___x_gnu_xdtest_o _Dtest
	IMPORTS 
	DECLARES 
	USES 
}
Module _x_gnu_xdtest.o {
	OBJECT += libstl.a::_x_gnu_xdtest.o
}
ObjectFile libstl.a::_x_gnu_xfdtest.o {
	NAME Object file _x_gnu_xfdtest.o from archive libstl.a
	EXPORTS _FDtest ___x_gnu_xfdtest_o
	IMPORTS 
	DECLARES 
	USES 
}
Module _x_gnu_xfdtest.o {
	OBJECT += libstl.a::_x_gnu_xfdtest.o
}
ObjectFile libstl.a::_x_gnu_xfpostox.o {
	NAME Object file _x_gnu_xfpostox.o from archive libstl.a
	EXPORTS ___x_gnu_xfpostox_o
	IMPORTS 
	DECLARES 
	USES 
}
Module _x_gnu_xfpostox.o {
	OBJECT += libstl.a::_x_gnu_xfpostox.o
}
ObjectFile libstl.a::_x_gnu_xfvalues.o {
	NAME Object file _x_gnu_xfvalues.o from archive libstl.a
	EXPORTS _FRteps _FXbig ___x_gnu_xfvalues_o _FEps _FInf _FDenorm _FSnan _FNan _FZero
	IMPORTS 
	DECLARES 
	USES 
}
Module _x_gnu_xfvalues.o {
	OBJECT += libstl.a::_x_gnu_xfvalues.o
}
ObjectFile libstl.a::_x_gnu_xlocale.o {
	NAME Object file _x_gnu_xlocale.o from archive libstl.a
	EXPORTS _ZNSt9_FacetptrISt5ctypeIcEE6_PsaveE _ZNSt8messagesIcE2idE _ZTSNSt6locale5facetE _ZTVNSt6locale5facetE _ZTSSt10moneypunctIcLb1EE _ZNSt9_FacetptrISt9money_putIcSt19ostreambuf_iteratorIcSt11char_traitsIcEEEE6_PsaveE _ZNSt9_FacetptrISt10moneypunctIcLb0EEE6_PsaveE _ZTVSt10moneypunctIcLb1EE _ZTISt8time_putIcSt19ostreambuf_iteratorIcSt11char_traitsIcEEE _ZGVNSt8messagesIcE2idE _ZTVSt8messagesIcE _ZTISt10ctype_base _ZTSSt8time_putIcSt19ostreambuf_iteratorIcSt11char_traitsIcEEE _ZGVNSt9money_putIcSt19ostreambuf_iteratorIcSt11char_traitsIcEEE2idE _ZTISt7_MpunctIcE _ZNSt10moneypunctIcLb0EE2idE _ZTISt10money_base _ZTVSt9time_base _ZNSt9money_getIcSt19istreambuf_iteratorIcSt11char_traitsIcEEE2idE _ZTVSt7_MpunctIcE _ZTSSt9money_getIcSt19istreambuf_iteratorIcSt11char_traitsIcEEE _ZTVSt8time_putIcSt19ostreambuf_iteratorIcSt11char_traitsIcEEE _ZNSt9_FacetptrISt8time_putIcSt19ostreambuf_iteratorIcSt11char_traitsIcEEEE6_PsaveE _ZTSSt8messagesIcE _ZTSSt7collateIcE _ZGVNSt7collateIcE2idE _ZTSSt10money_base _ZTISt9time_base _ZTSSt9time_base _ZTISt10moneypunctIcLb1EE _ZNSt6locale7_Locimp9_MakexlocERKSt8_LocinfoiPS0_PKS_ _ZTVSt9money_putIcSt19ostreambuf_iteratorIcSt11char_traitsIcEEE _ZTISt8time_getIcSt19istreambuf_iteratorIcSt11char_traitsIcEEE _ZGVNSt9money_getIcSt19istreambuf_iteratorIcSt11char_traitsIcEEE2idE _ZTVSt7collateIcE _ZGVNSt8time_putIcSt19ostreambuf_iteratorIcSt11char_traitsIcEEE2idE _ZGVNSt10moneypunctIcLb1EE2idE _ZTINSt6locale5facetE _ZGVNSt10moneypunctIcLb0EE2idE _ZTSSt9money_putIcSt19ostreambuf_iteratorIcSt11char_traitsIcEEE _ZTVSt10ctype_base _ZTSSt10ctype_base _ZNSt10moneypunctIcLb1EE2idE _ZNSt9_FacetptrISt8messagesIcEE6_PsaveE _ZTISt8messagesIcE _ZTSSt7_MpunctIcE _ZNSt9_FacetptrISt7collateIcEE6_PsaveE _ZTVSt8time_getIcSt19istreambuf_iteratorIcSt11char_traitsIcEEE _ZTVSt9money_getIcSt19istreambuf_iteratorIcSt11char_traitsIcEEE _ZTISt5ctypeIcE _ZTVSt10moneypunctIcLb0EE _ZTSSt13messages_base _ZNSt9_FacetptrISt8time_getIcSt19istreambuf_iteratorIcSt11char_traitsIcEEEE6_PsaveE _ZTVSt10money_base _ZTISt9money_putIcSt19ostreambuf_iteratorIcSt11char_traitsIcEEE _ZTVSt5ctypeIcE _ZNSt8time_putIcSt19ostreambuf_iteratorIcSt11char_traitsIcEEE2idE _ZNSt9money_putIcSt19ostreambuf_iteratorIcSt11char_traitsIcEEE2idE ___x_gnu_xlocale_o _ZTISt7collateIcE _ZNSt8time_getIcSt19istreambuf_iteratorIcSt11char_traitsIcEEE2idE _ZNSt7collateIcE2idE _ZTISt10moneypunctIcLb0EE _ZTSSt8time_getIcSt19istreambuf_iteratorIcSt11char_traitsIcEEE _ZNSt9_FacetptrISt9money_getIcSt19istreambuf_iteratorIcSt11char_traitsIcEEEE6_PsaveE _ZTSSt5ctypeIcE _ZGVNSt8time_getIcSt19istreambuf_iteratorIcSt11char_traitsIcEEE2idE _ZTISt13messages_base _GLOBAL__I_65535_0__ZNSt6locale7_Locimp9_MakexlocERKSt8_LocinfoiPS0_PKS_ _ZTSSt10moneypunctIcLb0EE _ZTVSt13messages_base _ZNSt9_FacetptrISt10moneypunctIcLb1EEE6_PsaveE _ZTISt9money_getIcSt19istreambuf_iteratorIcSt11char_traitsIcEEE
	IMPORTS _Znaj __cxa_rethrow __locale memmove _ZTISt8bad_cast __errno _ZNKSt12_String_base5_XranEv _ZNSt6locale7_Locimp7_AddfacEPNS_5facetEj __cxa_call_unexpected _ZNKSt12_String_base5_XlenEv memcpy tolower _ZNSt8_LocinfoD1Ev _ZTVN10__cxxabiv120__si_class_type_infoE _ZNSt8bad_castD1Ev _ZdlPv __cxa_end_catch strtol __gxx_personality_v0 _ZNSt5ctypeIcE2idE _ZNSt6locale2id7_Id_cntE _Unwind_Resume _Getctyptab _Locksyslock _Unlocksyslock _ZTVN10__cxxabiv117__class_type_infoE __cxa_throw memset _ZTVSt8bad_cast _ZdaPv sprintf _ZNSt8_LocinfoC1EPKc __cxa_begin_catch _Stold strftime __cxa_allocate_exception _ZNKSt6locale9_GetfacetEj _Znwj strlen toupper _ZNSt6locale5facet9_RegisterEv free
	DECLARES _ZNKSt7_MpunctIcE13do_neg_formatEv _ZNKSt5ctypeIcE8do_widenEPKcS2_Pc _ZNKSt9money_putIcSt19ostreambuf_iteratorIcSt11char_traitsIcEEE8_PutmfldES3_bRSt8ios_basecbSs _ZNSt6locale5facetD0Ev _ZSt9use_facetISt10moneypunctIcLb0EEERKT_RKSt6locale _ZNSt10ctype_baseD1Ev _ZNKSt9money_putIcSt19ostreambuf_iteratorIcSt11char_traitsIcEEE6do_putES3_bRSt8ios_basece _ZNSt6locale5facetD1Ev _ZNSt9money_putIcSt19ostreambuf_iteratorIcSt11char_traitsIcEEED0Ev _ZNKSt8time_getIcSt19istreambuf_iteratorIcSt11char_traitsIcEEE11do_get_timeES3_S3_RSt8ios_baseRNSt5_IosbIiE8_IostateEP2tm _ZNSt10money_baseD0Ev _ZNSt10ctype_baseD0Ev _ZNKSt5ctypeIcE10do_tolowerEPcPKc _ZNSt8messagesIcED1Ev _ZNSt7collateIcED0Ev _ZNSt10money_baseD1Ev _ZNKSt8time_getIcSt19istreambuf_iteratorIcSt11char_traitsIcEEE11do_get_dateES3_S3_RSt8ios_baseRNSt5_IosbIiE8_IostateEP2tm _ZNKSt7collateIcE10do_compareEPKcS2_S2_S2_ _ZNKSt7collateIcE12do_transformEPKcS2_ _ZNSt7_MpunctIcED1Ev _ZNSs6assignERKSsjj _ZNSt19ostreambuf_iteratorIcSt11char_traitsIcEEaSEc _ZNSt8time_getIcSt19istreambuf_iteratorIcSt11char_traitsIcEEEC1Ej _ZNSt8time_getIcSt19istreambuf_iteratorIcSt11char_traitsIcEEED1Ev _ZNSt7_MpunctIcED0Ev _ZNSt9money_getIcSt19istreambuf_iteratorIcSt11char_traitsIcEEED0Ev _ZNSt7_MpunctIcEC2Ejb _ZNKSt8messagesIcE8do_closeEi _ZNSt13messages_baseD1Ev _ZNSt8time_putIcSt19ostreambuf_iteratorIcSt11char_traitsIcEEED1Ev _ZNKSt9money_getIcSt19istreambuf_iteratorIcSt11char_traitsIcEEE6do_getES3_S3_bRSt8ios_baseRNSt5_IosbIiE8_IostateERe _ZNKSt9money_getIcSt19istreambuf_iteratorIcSt11char_traitsIcEEE6do_getES3_S3_bRSt8ios_baseRNSt5_IosbIiE8_IostateERSs _ZNKSt5ctypeIcE10do_toupperEPcPKc _ZNSt7_MpunctIcE5_InitERKSt8_Locinfo _ZNKSt5ctypeIcE10do_tolowerEc _ZNSt19istreambuf_iteratorIcSt11char_traitsIcEE5_PeekEv _ZNSt10moneypunctIcLb1EED0Ev _ZNKSt5ctypeIcE9do_narrowEcc _ZNSt10moneypunctIcLb1EE7_GetcatEPPKNSt6locale5facetE _ZNSt9time_baseD0Ev _ZNSt10moneypunctIcLb0EE7_GetcatEPPKNSt6locale5facetE _ZNKSt7_MpunctIcE16do_decimal_pointEv _ZNSt9time_baseD1Ev _ZNKSt7_MpunctIcE16do_negative_signEv _ZNKSt8time_getIcSt19istreambuf_iteratorIcSt11char_traitsIcEEE11do_get_yearES3_S3_RSt8ios_baseRNSt5_IosbIiE8_IostateEP2tm _ZNSt8time_getIcSt19istreambuf_iteratorIcSt11char_traitsIcEEED0Ev _ZNSt5ctypeIcED1Ev _ZNSs6appendEjc _ZNSt6localeD1Ev _ZNKSt5ctypeIcE10do_toupperEc _ZNKSt8time_getIcSt19istreambuf_iteratorIcSt11char_traitsIcEEE14do_get_weekdayES3_S3_RSt8ios_baseRNSt5_IosbIiE8_IostateEP2tm _ZNSt10moneypunctIcLb1EED1Ev _ZNSt7collateIcED1Ev _ZNSt9money_getIcSt19istreambuf_iteratorIcSt11char_traitsIcEEED1Ev _ZNKSt8messagesIcE6do_getEiiiRKSs _ZNSt8messagesIcED0Ev _ZNSt19istreambuf_iteratorIcSt11char_traitsIcEE4_IncEv _ZNSt5ctypeIcED0Ev _ZNKSt7_MpunctIcE11do_groupingEv _ZNSt10moneypunctIcLb0EED1Ev _ZSt9use_facetISt10moneypunctIcLb1EEERKT_RKSt6locale _ZNKSt19istreambuf_iteratorIcSt11char_traitsIcEE5equalERKS2_ _ZNSt9money_putIcSt19ostreambuf_iteratorIcSt11char_traitsIcEEED1Ev _ZNKSt9money_putIcSt19ostreambuf_iteratorIcSt11char_traitsIcEEE6do_putES3_bRSt8ios_basecRKSs _ZNKSt9money_getIcSt19istreambuf_iteratorIcSt11char_traitsIcEEE8_GetmfldERS3_S5_bRSt8ios_base _ZNSt13messages_baseD0Ev _ZNKSt7_MpunctIcE16do_thousands_sepEv _ZNKSt8time_getIcSt19istreambuf_iteratorIcSt11char_traitsIcEEE7_GetintERS3_S5_iiRi _ZNKSt7collateIcE7do_hashEPKcS2_ _ZNKSt5ctypeIcE9do_narrowEPKcS2_cPc _ZNKSt8time_putIcSt19ostreambuf_iteratorIcSt11char_traitsIcEEE6do_putES3_RSt8ios_basecPK2tmcc _ZNSt8time_putIcSt19ostreambuf_iteratorIcSt11char_traitsIcEEED0Ev _ZNKSt5ctypeIcE8do_widenEc _ZNKSt8time_getIcSt19istreambuf_iteratorIcSt11char_traitsIcEEE13do_date_orderEv _ZNKSt8messagesIcE7do_openERKSsRKSt6locale _ZNSs5_GrowEjb _ZNSt7_MpunctIcE5_TidyEv _ZNSt10moneypunctIcLb0EED0Ev _ZNKSt7_MpunctIcE14do_frac_digitsEv _ZNSs5eraseEjj _ZNSs6insertEjjc _ZNKSt7_MpunctIcE14do_curr_symbolEv _ZNKSt7_MpunctIcE13do_pos_formatEv _ZNKSt8time_getIcSt19istreambuf_iteratorIcSt11char_traitsIcEEE16do_get_monthnameES3_S3_RSt8ios_baseRNSt5_IosbIiE8_IostateEP2tm _ZNKSt7_MpunctIcE16do_positive_signEv _ZNSs5_TidyEbj
	USES 
}
Module _x_gnu_xlocale.o {
	OBJECT += libstl.a::_x_gnu_xlocale.o
}
ObjectFile libstl.a::_x_gnu_xlocinfo.o {
	NAME Object file _x_gnu_xlocinfo.o from archive libstl.a
	EXPORTS ___x_gnu_xlocinfo_o _Getctyptab
	IMPORTS islower ispunct isspace isxdigit calloc isupper isalnum isdigit iscntrl
	DECLARES 
	USES 
}
Module _x_gnu_xlocinfo.o {
	OBJECT += libstl.a::_x_gnu_xlocinfo.o
}
ObjectFile libstl.a::_x_gnu_xmtx.o {
	NAME Object file _x_gnu_xmtx.o from archive libstl.a
	EXPORTS _Mtxdst _Mtxunlock ___x_gnu_xmtx_o _Mtxlock _Mtxinit
	IMPORTS semMCreate semDelete semTake semGive
	DECLARES 
	USES 
}
Module _x_gnu_xmtx.o {
	OBJECT += libstl.a::_x_gnu_xmtx.o
}
ObjectFile libstl.a::_x_gnu_xmutex.o {
	NAME Object file _x_gnu_xmutex.o from archive libstl.a
	EXPORTS ___x_gnu_xmutex_o _ZNSt6_Mutex7_UnlockEv _ZNSt6_Mutex5_LockEv _ZNSt6_MutexC1Ev _ZNSt6_MutexD2Ev _ZNSt6_MutexC2Ev _ZNSt6_MutexD1Ev
	IMPORTS _Mtxdst _Mtxunlock _ZdlPv _Mtxlock _Znwj _Mtxinit
	DECLARES 
	USES 
}
Module _x_gnu_xmutex.o {
	OBJECT += libstl.a::_x_gnu_xmutex.o
}
ObjectFile libstl.a::_x_gnu_xstod.o {
	NAME Object file _x_gnu_xstod.o from archive libstl.a
	EXPORTS ___x_gnu_xstod_o _Stod _Stold _Stof
	IMPORTS strtod
	DECLARES 
	USES 
}
Module _x_gnu_xstod.o {
	OBJECT += libstl.a::_x_gnu_xstod.o
}
ObjectFile libstl.a::_x_gnu_xstoll.o {
	NAME Object file _x_gnu_xstoll.o from archive libstl.a
	EXPORTS _Stoll ___x_gnu_xstoll_o
	IMPORTS __ctype __errno _Stoull
	DECLARES 
	USES 
}
Module _x_gnu_xstoll.o {
	OBJECT += libstl.a::_x_gnu_xstoll.o
}
ObjectFile libstl.a::_x_gnu_xstoull.o {
	NAME Object file _x_gnu_xstoull.o from archive libstl.a
	EXPORTS ___x_gnu_xstoull_o _Stoull
	IMPORTS __ctype __errno __udivdi3 memchr __ctype_tolower
	DECLARES 
	USES 
}
Module _x_gnu_xstoull.o {
	OBJECT += libstl.a::_x_gnu_xstoull.o
}
ObjectFile libstl.a::_x_gnu_xsyslock.o {
	NAME Object file _x_gnu_xsyslock.o from archive libstl.a
	EXPORTS ___x_gnu_xsyslock_o _Locksyslock _Unlocksyslock
	IMPORTS _Mtxdst _Mtxunlock __gthread_once _Atexit _Mtxlock _Mtxinit
	DECLARES 
	USES 
}
Module _x_gnu_xsyslock.o {
	OBJECT += libstl.a::_x_gnu_xsyslock.o
}
ObjectFile libstl.a::_x_gnu_xvalues.o {
	NAME Object file _x_gnu_xvalues.o from archive libstl.a
	EXPORTS _Snan _Rteps _Inf _Eps ___x_gnu_xvalues_o _Denorm _Nan _Hugeval _Xbig _Zero
	IMPORTS 
	DECLARES 
	USES 
}
Module _x_gnu_xvalues.o {
	OBJECT += libstl.a::_x_gnu_xvalues.o
}
ObjectFile libstl.a::__gnu_cplusplus_std_library.o {
	NAME Object file __gnu_cplusplus_std_library.o from archive libstl.a
	EXPORTS __gnu_cplusplus_std_libraryInit
	IMPORTS ___x_gnu_atexit_arm_o ___x_gnu_atexit_thread_o ___x_gnu_eh_abi_o ___x_gnu_eh_compact_pr_o ___x_gnu_eh_ptr_o ___x_gnu_eh_tm_o ___x_gnu_fiopen_o ___x_gnu_gccstdexcept_o ___x_gnu_guard_error_o ___x_gnu_hash_bytes_o ___x_gnu_iomanip_o ___x_gnu_ios_o ___x_gnu_iostream_o ___x_gnu_limits_o ___x_gnu_locale_o ___x_gnu_locale0_o ___x_gnu_nested_exception_o ___x_gnu_string_o ___x_gnu_strstrea_o ___x_gnu_wiostrea_o ___x_gnu_wlocale_o ___x_gnu_xatexit_o ___x_gnu_xdtest_o ___x_gnu_xfdtest_o ___x_gnu_xfpostox_o ___x_gnu_xfvalues_o ___x_gnu_xlocale_o ___x_gnu_xlocinfo_o ___x_gnu_xmtx_o ___x_gnu_xmutex_o ___x_gnu_xstod_o ___x_gnu_xstoll_o ___x_gnu_xstoull_o ___x_gnu_xsyslock_o ___x_gnu_xvalues_o
	DECLARES 
	USES 
}
Module __gnu_cplusplus_std_library.o {
	OBJECT += libstl.a::__gnu_cplusplus_std_library.o
}
Library libstl.a {
	MODULES libstl.a::_x_gnu_atexit_arm.o libstl.a::_x_gnu_atexit_thread.o libstl.a::_x_gnu_eh_abi.o libstl.a::_x_gnu_eh_compact_pr.o libstl.a::_x_gnu_eh_ptr.o libstl.a::_x_gnu_eh_tm.o libstl.a::_x_gnu_fiopen.o libstl.a::_x_gnu_gccstdexcept.o libstl.a::_x_gnu_guard_error.o libstl.a::_x_gnu_hash_bytes.o libstl.a::_x_gnu_iomanip.o libstl.a::_x_gnu_ios.o libstl.a::_x_gnu_iostream.o libstl.a::_x_gnu_limits.o libstl.a::_x_gnu_locale.o libstl.a::_x_gnu_locale0.o libstl.a::_x_gnu_nested_exception.o libstl.a::_x_gnu_string.o libstl.a::_x_gnu_strstrea.o libstl.a::_x_gnu_wiostrea.o libstl.a::_x_gnu_wlocale.o libstl.a::_x_gnu_xatexit.o libstl.a::_x_gnu_xdtest.o libstl.a::_x_gnu_xfdtest.o libstl.a::_x_gnu_xfpostox.o libstl.a::_x_gnu_xfvalues.o libstl.a::_x_gnu_xlocale.o libstl.a::_x_gnu_xlocinfo.o libstl.a::_x_gnu_xmtx.o libstl.a::_x_gnu_xmutex.o libstl.a::_x_gnu_xstod.o libstl.a::_x_gnu_xstoll.o libstl.a::_x_gnu_xstoull.o libstl.a::_x_gnu_xsyslock.o libstl.a::_x_gnu_xvalues.o libstl.a::__gnu_cplusplus_std_library.o
}
